f60dbd906	d84c5f29b	Sat Jul 8 16:21:24 2023 -0600	Fix thinko	commit f60dbd906a4bf89354af1ed0616a61a5099d8c1aAuthor: Behdad Esfahbod <behdad@behdad.org>Date:   Sat Jul 8 16:21:24 2023 -0600    Fix thinko        Fixes https://oss-fuzz.com/testcase-detail/4787105656864768
25297408d	a8c655e65	Mon Jul 3 10:35:27 2023 -0600	[COLR] Fix PaintComposite sanitize timeout	commit 25297408de73f8bf31ebecd241f959455ed00e95Author: Behdad Esfahbod <behdad@behdad.org>Date:   Mon Jul 3 10:34:26 2023 -0600    [COLR] Fix PaintComposite sanitize timeout        Was timing out after recent sanitize() change.        Fixes https://oss-fuzz.com/testcase-detail/5692635449524224
62f5ed461	87b573615	Wed Jun 28 12:04:28 2023 -0600	[subset/cff] Fix an infinite loop	commit 62f5ed461ea5fa4fd63631ddeb505ea16e2becb4Author: Behdad Esfahbod <behdad@behdad.org>Date:   Wed Jun 28 12:02:52 2023 -0600    [subset/cff] Fix an infinite loop        Fixes https://oss-fuzz.com/testcase-detail/5419002026131456
347b94481	49c52fa95	Mon Jun 26 18:10:36 2023 -0600	[null] Fix getting Crap(hb_bytes_t)	commit 347b94481100d2eefc88c1e6bc71aa20dcb907bbAuthor: Behdad Esfahbod <behdad@behdad.org>Date:   Mon Jun 26 18:09:40 2023 -0600    [null] Fix getting Crap(hb_bytes_t)        Fixes https://oss-fuzz.com/testcase-detail/6187272924692480
db700b567	e39c4cf5a	Tue Jun 13 08:42:36 2023 -0600	[subset] fix fuzzer timeout.	commit db700b5670d9475cc8ed4880cc9447b232c5e432Author: Garret Rieger <grieger@google.com>Date:   Mon Jun 12 23:38:26 2023 +0000    [subset] fix fuzzer timeout.        Fixes: https://oss-fuzz.com/testcase-detail/6681253479579648. Limits iteration of coverage table during MATH subset to valid glyphs.
f3b4d35f3	ff326fbe8	Tue May 30 18:56:48 2023 +0200	[subset] Fix fuzzer crash.	commit f3b4d35f362efb818959814b741e94facda5fd29Author: Garret Rieger <grieger@google.com>Date:   Mon May 29 22:38:40 2023 +0000    [subset] Fix fuzzer crash.        https://oss-fuzz.com/testcase-detail/6608005089853440
20c564bc7	5abe71320	Sat May 27 01:16:46 2023 +0200	[repacker] Fix fuzzer memory leak.	commit 20c564bc7620be7f9325376601797fc20622f845Author: Garret Rieger <grieger@google.com>Date:   Fri May 26 23:04:25 2023 +0000    [repacker] Fix fuzzer memory leak.        https://oss-fuzz.com/testcase-detail/6419865171525632
a652281ed	208c9490c	Sat May 27 00:25:47 2023 +0200	[subset] Fix fuzzer timeout.	commit a652281ed6125e49ab43f0b25e88bc72b2d98085Author: Garret Rieger <grieger@google.com>Date:   Fri May 26 19:47:50 2023 +0000    [subset] Fix fuzzer timeout.        Fixes https://oss-fuzz.com/testcase-detail/5979721620652032. Timeout was caused by degenerate map insert behaviour due to poor integer hash function. Presize the map to avoid it. Also fixes collect_mapping() for cmap format 13.
86658df5d	cda646a59	Fri May 5 16:10:46 2023 -0600	[ClassDef] Fix a fuzzer issue	commit 86658df5d29308d66ddead03f1112442df04ec27Author: Behdad Esfahbod <behdad@behdad.org>Date:   Fri May 5 16:10:46 2023 -0600    [ClassDef] Fix a fuzzer issue        Don't qsort an array that failed to allocate!        Fixes https://oss-fuzz.com/testcase-detail/6512559172485120
319a488b3	3f2401e2f	Thu May 4 10:36:48 2023 -0600	[GDEF] Fix null check	commit 319a488b3903cf92c3b45d1772717168a10f94d7Author: Behdad Esfahbod <behdad@behdad.org>Date:   Thu May 4 10:36:48 2023 -0600    [GDEF] Fix null check        Fixes https://oss-fuzz.com/testcase-detail/5920994267889664
b3fed4fa6	247ffe389	Thu Apr 27 17:18:47 2023 -0600	[repacker] fix fuzzer found memory leak.	commit b3fed4fa6465151e740bdbf5cfffb13298a57803Author: Garret Rieger <grieger@google.com>Date:   Thu Apr 27 22:13:30 2023 +0000    [repacker] fix fuzzer found memory leak.        Fixes https://oss-fuzz.com/testcase-detail/5196242811748352
9b5afad49	7cb95c8ab	Thu Apr 27 12:38:44 2023 -0600	[var] Fix assertion	commit 9b5afad49392cd2b661c6517353e0da950d33029Author: Behdad Esfahbod <behdad@behdad.org>Date:   Thu Apr 27 12:38:44 2023 -0600    [var] Fix assertion        Fixes https://oss-fuzz.com/testcase-detail/4861707188305920
2175f5d05	491aa572c	Mon Apr 24 18:11:48 2023 -0600	[subset] Fix inefficient ItemVariationStore subsetting w/ retain_gids.	commit 2175f5d050743317c563ec9414e0f83a47f7fbc4Author: Garret Rieger <grieger@google.com>Date:   Mon Apr 24 21:13:18 2023 +0000    [subset] Fix inefficient ItemVariationStore subsetting w/ retain_gids.        ItemVariationStore is relying on the assumption that the inner_map is populated for all output glyphs, this is not true for subsetting operations with retain gids enabled. Fixes fuzzer timeout: https://oss-fuzz.com/testcase-detail/4575222591520768.
647b02478	3db6baa20	Tue Apr 18 13:21:46 2023 -0600	[subset] Fix fuzzer issue https://oss-fuzz.com/testcase-detail/6521393809588224	commit 647b024784e1346f6886565f570cdf940d7b82b4Author: Garret Rieger <grieger@google.com>Date:   Mon Apr 17 22:47:47 2023 +0000    [subset] Fix fuzzer issue https://oss-fuzz.com/testcase-detail/6521393809588224
2cd81fdfb	453ded053	Thu Mar 30 16:19:41 2023 -0600	[subset] fix memory leak.	commit 2cd81fdfb6ccc6ba7ec63abe14e0126ece71f304Author: Garret Rieger <grieger@google.com>Date:   Thu Mar 30 22:11:43 2023 +0000    [subset] fix memory leak.        Fixes fuzzer issue https://oss-fuzz.com/testcase-detail/6169920089227264
f0f7f2252	79233a149	Tue Mar 21 11:41:09 2023 -0600	[subset] fix fuzzer found null deref.	commit f0f7f22525d20ba05e9b69ba40b352cb89b506aeAuthor: Garret Rieger <grieger@google.com>Date:   Mon Mar 20 18:39:49 2023 +0000    [subset] fix fuzzer found null deref.        https://oss-fuzz.com/testcase-detail/5844352760152064
28b05e1cb	9286e1252	Wed Mar 8 17:02:04 2023 -0700	[subset] Fix memory leak in glyf subset.	commit 28b05e1cb6116b07b95af799ff68b883c3f590d1Author: Garret Rieger <grieger@google.com>Date:   Wed Mar 8 23:59:04 2023 +0000    [subset] Fix memory leak in glyf subset.        Fixes fuzzer issue: https://oss-fuzz.com/testcase-detail/6525813890875392.
552290f60	7327006d6	Wed Mar 8 10:25:26 2023 -0700	[gvar] Fix out-of-memory access issue	commit 552290f60437ceaa5aa299a2db726046c0385f80Author: Behdad Esfahbod <behdad@behdad.org>Date:   Wed Mar 8 10:25:26 2023 -0700    [gvar] Fix out-of-memory access issue        Fixes https://oss-fuzz.com/testcase-detail/5953342850596864
08784baf1	789717387	Thu Mar 2 10:48:30 2023 -0700	[GSUB/GPOS] Fix sanitization in Format1	commit 08784baf101aea472c133dcd67604b475ace3772Author: Behdad Esfahbod <behdad@behdad.org>Date:   Thu Mar 2 10:48:30 2023 -0700    [GSUB/GPOS] Fix sanitization in Format1        Fixes https://oss-fuzz.com/testcase-detail/5120727025319936
64fa5cd48	840e1b6b8	Tue Feb 7 15:52:53 2023 -0700	[GPOS] Fix assert fail introduced recently	commit 64fa5cd482d0be2e215998aa1c2a05b978133e7cAuthor: Behdad Esfahbod <behdad@behdad.org>Date:   Tue Feb 7 15:50:36 2023 -0700    [GPOS] Fix assert fail introduced recently        Was introduced in 8708b9e081192786c027bb7f5f23d76dbe5c19e8.        If these lookups are recursed to from (Chain)Context out-of-order,    it was possible that last_base > buffer->idx, in which case we    were attaching marks to a base after them... and an assertion    was failing fortunately.        Fixes https://oss-fuzz.com/testcase-detail/6377756666757120
b63159e8b	be8a87c45	Sat Jan 21 15:51:40 2023 -0700	[PairPosFormat1] Fix stride	commit b63159e8bf579345a6f56d04ad1b2c28eee66bacAuthor: Behdad Esfahbod <behdad@behdad.org>Date:   Sat Jan 21 15:50:48 2023 -0700    [PairPosFormat1] Fix stride        Fixes https://bugs.chromium.org/p/oss-fuzz/issues/detail?id=55287    and generally the lookup with MediumTypes.
9afe5f973	4f013c42f	Mon Jan 2 11:46:45 2023 -0700	[vector] Fix leak	commit 9afe5f973ea62957542830662f4c61d3ce795678Author: Behdad Esfahbod <behdad@behdad.org>Date:   Mon Jan 2 11:44:29 2023 -0700    [vector] Fix leak        Discovered by https://bugs.chromium.org/p/oss-fuzz/issues/detail?id=54767
35233d251	b17fbc200	Wed Dec 7 10:32:56 2022 -0700	[repacker] fix fuzzer reported stack overflow.	commit 35233d2514cc202e9e2f8f94b3102cb620a0d403Author: Garret Rieger <grieger@google.com>Date:   Wed Dec 7 00:47:28 2022 +0000    [repacker] fix fuzzer reported stack overflow.        Fixes https://oss-fuzz.com/testcase-detail/6014493291577344.
dd1ba328a	59451502e	Mon Nov 21 16:24:48 2022 -0700	[repacker] fix fuzzer timeout.	commit dd1ba328a8d49ff43633eda43013fd5dd1fe2adaAuthor: Garret Rieger <grieger@google.com>Date:   Mon Nov 21 23:20:59 2022 +0000    [repacker] fix fuzzer timeout.        For https://oss-fuzz.com/testcase-detail/5845846876356608. Only process the set of unique overflows.
7fde6ab02	a4e0fd168	Fri Aug 5 15:10:31 2022 -0600	fuzzer fix: https://bugs.chromium.org/p/oss-fuzz/issues/detail?id=49790	commit 7fde6ab02560889c15f573f740b44b0463bcc45cAuthor: Qunxin Liu <qxliu@google.com>Date:   Fri Aug 5 13:33:22 2022 -0700    fuzzer fix: https://bugs.chromium.org/p/oss-fuzz/issues/detail?id=49790
e2cc34e19	241ebc935	Tue Jul 26 12:31:40 2022 -0600	[subset/GPOS] Fix a fuzzer timeout test	commit e2cc34e1908c26efddbfd497b707c712583f8243Author: Behdad Esfahbod <behdad@behdad.org>Date:   Tue Jul 26 12:31:15 2022 -0600    [subset/GPOS] Fix a fuzzer timeout test        Fixes https://oss-fuzz.com/testcase-detail/5234369031176192
4cb83967a	32c85b8c8	Sat Jul 23 11:00:20 2022 -0600	[subset/ClassDefFormat2] Fix timeout	commit 4cb83967aacf0aaf2622fc55539f04eb9ce2b7a0Author: Behdad Esfahbod <behdad@behdad.org>Date:   Sat Jul 23 10:59:42 2022 -0600    [subset/ClassDefFormat2] Fix timeout        Fixes https://oss-fuzz.com/testcase-detail/5417800474165248
32c85b8c8	06c3ec0a1	Sat Jul 23 10:50:26 2022 -0600	[avar2] Fix mapping when coords length don\'t match	commit 32c85b8c8c1994e318dce49b928a7298a0b23560Author: Behdad Esfahbod <behdad@behdad.org>Date:   Sat Jul 23 10:50:26 2022 -0600    [avar2] Fix mapping when coords length don't match        Ouch.        Fixes https://bugs.chromium.org/p/oss-fuzz/issues/detail?id=49407
89de8c700	faac252f9	Mon Jul 18 13:07:29 2022 -0600	[CoverageFormat2] Another fix for broken tables	commit 89de8c700f16bd50617c20a81b77c6555f3a8988Author: Behdad Esfahbod <behdad@behdad.org>Date:   Mon Jul 18 13:07:29 2022 -0600    [CoverageFormat2] Another fix for broken tables        Fixes https://oss-fuzz.com/testcase-detail/6005342714068992
d8574b44c	b475a2ab2	Sun Jul 17 18:44:27 2022 -0600	[CoverageFormat2] Fix iterator to avoid infinite loop	commit d8574b44ccde97fc7111b4d983f5303e200f0ae8Author: Behdad Esfahbod <behdad@behdad.org>Date:   Sun Jul 17 18:44:27 2022 -0600    [CoverageFormat2] Fix iterator to avoid infinite loop        on invalid data.        Fixes https://oss-fuzz.com/testcase-detail/5304497047470080
311413f16	4ba7980b8	Tue Jun 14 17:49:13 2022 +0100	[subset] Fix fuzzer issue.	commit 311413f16b92a8d5811897b5793ca8a9f218b779Author: Garret Rieger <grieger@google.com>Date:   Sat Jun 11 01:05:57 2022 +0000    [subset] Fix fuzzer issue.        Fixes https://oss-fuzz.com/testcase-detail/5693568490012672. new_index should be set from new_index2 when the entry is present in the map.
b59e25f25	356c1f833	Tue Jun 7 09:27:44 2022 -0600	[cff] Try fixing Heap-buffer-overflow in CFF::Charset::collect_glyph_to_sid_map	commit b59e25f25ef20dddc7e4dff0432c63d1afe287aeAuthor: Behdad Esfahbod <behdad@behdad.org>Date:   Tue Jun 7 09:27:09 2022 -0600    [cff] Try fixing Heap-buffer-overflow in CFF::Charset::collect_glyph_to_sid_map        Fixes https://bugs.chromium.org/p/oss-fuzz/issues/detail?id=47790
73b8360dc	f1bf14ea8	Thu May 19 17:02:34 2022 -0600	[subset] fix fuzzer found underflow when heap push fails.	commit 73b8360dcfb57eaa9acffc7967015a113421eedaAuthor: Garret Rieger <grieger@google.com>Date:   Thu May 19 22:59:51 2022 +0000    [subset] fix fuzzer found underflow when heap push fails.        Fixes https://oss-fuzz.com/testcase-detail/5148625505746944.
b051f3fa8	2884eb97b	Mon May 9 12:25:05 2022 -0600	[subset] Fix cpal subsetting when there are partial palette overlaps.	commit b051f3fa8388d25c7023a7f48dfea415bde1c94cAuthor: Garret Rieger <grieger@google.com>Date:   Thu May 5 23:27:34 2022 +0000    [subset] Fix cpal subsetting when there are partial palette overlaps.        The existing code doesn't correctly handle the case where palettes partially overlap in the color record array. This changes the subsetting to only share entries in the color record array when palettes have the same first color index. Partially overlapping palettes will be converted to disjoint segments in the color record array.        Updates one of the color tests to use multiple palettes.        Also fixes fuzzer: https://oss-fuzz.com/testcase-detail/5568200165687296.
03085132b	116cc6923	Mon Mar 21 18:09:06 2022 -0600	[buffer] Fix out-buffer under memory-alloc failure	commit 03085132bac6bb3f69378cab3eaf5a57ad1362ffAuthor: Behdad Esfahbod <behdad@behdad.org>Date:   Mon Mar 21 18:06:33 2022 -0600    [buffer] Fix out-buffer under memory-alloc failure        This was broken in July refactoring of the buffer, and exposed to    ReverseChainSingleSubstFormat1 in 3807061d634b60bd6235d6e1d8c47a034377f924        Fixes:    https://bugs.chromium.org/p/oss-fuzz/issues/detail?id=38800    https://bugs.chromium.org/p/chromium/issues/detail?id=1303552
067f90a82	c4573c2ec	Tue Dec 14 17:34:21 2021 -0700	[subset] Fix for fuzzer timeout.	commit 067f90a82087a5feb1cf76625c54c60a10946fe1Author: Garret Rieger <grieger@google.com>Date:   Tue Dec 14 16:24:38 2021 -0800    [subset] Fix for fuzzer timeout.        Fixes https://oss-fuzz.com/testcase-detail/5549945449480192        In prune_langsys: move LangSys visited check up before any work is done for a LangSys. In this particular case the compare() method is responsible for the majority of the time spent and wasn't being guarded with a visisted check.
0a7563a53	364b6b398	Tue Nov 2 15:25:18 2021 -0700	[subset] fuzzer fix: https://oss-fuzz.com/testcase?key=6254792024915968	commit 0a7563a53ffedd735cb41c03f697269ef48f0ec2Author: Qunxin Liu <qxliu@google.com>Date:   Mon Nov 1 14:56:14 2021 -0700    [subset] fuzzer fix: https://oss-fuzz.com/testcase?key=6254792024915968        Make sure input is valid, each gid has a corresponding offset value in    the map
85deddb16	de9424172	Wed Oct 27 16:16:15 2021 -0700	[subset] fuzzer fix: https://bugs.chromium.org/p/oss-fuzz/issues/detail?id=40406	commit 85deddb16ee6b00b0c921998e1d93c84002f5a42Author: Qunxin Liu <qxliu@google.com>Date:   Wed Oct 27 14:36:02 2021 -0700    [subset] fuzzer fix: https://bugs.chromium.org/p/oss-fuzz/issues/detail?id=40406
794b00db4	a52c6df38	Wed Sep 29 10:29:06 2021 -0600	[subset] fuzzer fix: https://oss-fuzz.com/testcase-detail/6616166961905664	commit 794b00db4b63e8314aee96c23a20ecb878452eefAuthor: Qunxin Liu <qxliu@google.com>Date:   Mon Sep 27 17:21:16 2021 -0700    [subset] fuzzer fix: https://oss-fuzz.com/testcase-detail/6616166961905664
0ded6a70c	c65e1e084	Wed Jul 28 11:35:27 2021 -0600	[subset] Fix another fuzzer issue	commit 0ded6a70c829284a8220ce30a405b0a974061df4Author: Behdad Esfahbod <behdad@behdad.org>Date:   Wed Jul 28 11:28:38 2021 -0600    [subset] Fix another fuzzer issue        Addition could overflow on 32bit arch.        Fixes https://bugs.chromium.org/p/oss-fuzz/issues/detail?id=36636    Fixes https://oss-fuzz.com/testcase-detail/5072358514753536
c68a00b92	7b8464b65	Tue Jul 27 13:28:09 2021 -0600	[subset] Fix possible overflows in VarRegionList serialize	commit c68a00b92eb62fdc79f9a2bd1fc7a6acc24a3602Author: Behdad Esfahbod <behdad@behdad.org>Date:   Tue Jul 27 13:25:22 2021 -0600    [subset] Fix possible overflows in VarRegionList serialize        Fixes https://oss-fuzz.com/testcase-detail/5362189182566400
7416facee	895acdf7c	Thu Jul 8 09:09:30 2021 -0700	[subset] fuzzer fix: https://oss-fuzz.com/testcase-detail/5715464591376384	commit 7416faceeb7a875ba7316cee124edee2d59ea8d0Author: Qunxin Liu <qxliu@google.com>Date:   Wed Jul 7 11:27:49 2021 -0700    [subset] fuzzer fix: https://oss-fuzz.com/testcase-detail/5715464591376384
35d6af694	92206345a	Fri Jun 4 18:16:23 2021 -0600	[subset] fix fuzzer testcase: https://oss-fuzz.com/testcase-detail/5965777994907648	commit 35d6af69435ff070cee00f7cd9741b3545ca161cAuthor: Qunxin Liu <qxliu@google.com>Date:   Fri Jun 4 10:04:27 2021 -0700    [subset] fix fuzzer testcase: https://oss-fuzz.com/testcase-detail/5965777994907648
1b6008ca6	18f61210a	Wed Jun 2 17:32:16 2021 -0600	fix fuzzer testcase: https://oss-fuzz.com/testcase-detail/5417934246772736	commit 1b6008ca625e0f41cb34259368f91677a110b5ddAuthor: Qunxin Liu <qxliu@google.com>Date:   Wed Jun 2 15:07:18 2021 -0700    fix fuzzer testcase: https://oss-fuzz.com/testcase-detail/5417934246772736
425ba1f4a	ec4321068	Tue Apr 20 13:18:07 2021 -0600	[subset] fixes infinite loop in hb_set_get_max().	commit 425ba1f4ab4fd1ee0245bc822336d26bd1755c52Author: Garret Rieger <grieger@google.com>Date:   Mon Apr 19 18:01:24 2021 -0700    [subset] fixes infinite loop in hb_set_get_max().        Fixes https://oss-fuzz.com/testcase-detail/5363902507515904
ec4321068	0e845d973	Tue Apr 20 13:18:07 2021 -0600	[subset] fix infinite loop caused by alloc failure in repacker.	commit ec4321068b9de1ea2730b8a62dda7cb23d064303Author: Garret Rieger <grieger@google.com>Date:   Mon Apr 19 17:18:05 2021 -0700    [subset] fix infinite loop caused by alloc failure in repacker.        Fixes: https://oss-fuzz.com/testcase-detail/5609112151916544.
0e845d973	3fb62cdc1	Tue Apr 20 13:18:07 2021 -0600	[subset] fix memory leak in repacker caused by failed alloc.	commit 0e845d973e2bf15b56cf68af9db778d1258b7709Author: Garret Rieger <grieger@google.com>Date:   Mon Apr 19 16:09:37 2021 -0700    [subset] fix memory leak in repacker caused by failed alloc.        Fixes: https://oss-fuzz.com/testcase-detail/5616763250278400.
9dc9f0385	430a67cea	Fri Apr 9 11:07:28 2021 -0600	[subset] fix for fuzzer testcase: https://oss-fuzz.com/testcase-detail/5858518134554624	commit 9dc9f0385dce05456d48730bf5dc7cac52eaa4daAuthor: Qunxin Liu <qxliu@google.com>Date:   Thu Apr 8 11:00:17 2021 -0700    [subset] fix for fuzzer testcase: https://oss-fuzz.com/testcase-detail/5858518134554624
553ffaf68	4af5daced	Thu Apr 8 09:54:48 2021 -0600	[subset] fix for fuzzer testcase: https://oss-fuzz.com/testcase-detail/6382598554255360  avoid writing to null pointer	commit 553ffaf6823040bf4a91bcd4c8e42592cd4d13c2Author: Qunxin Liu <qxliu@google.com>Date:   Wed Apr 7 17:15:32 2021 -0700    [subset] fix for fuzzer testcase: https://oss-fuzz.com/testcase-detail/6382598554255360     avoid writing to null pointer
c5c13006a	bd2950b39	Wed Mar 31 12:37:45 2021 -0600	[subset] fix memory leaks found in https://oss-fuzz.com/testcase-detail/5179935334465536	commit c5c13006a1f8e5fb9b28a3c2081e93eb4e5d4c98Author: Garret Rieger <grieger@google.com>Date:   Wed Mar 31 11:23:46 2021 -0700    [subset] fix memory leaks found in https://oss-fuzz.com/testcase-detail/5179935334465536
adca4ce07	9f77a0c1f	Tue Mar 30 15:44:41 2021 -0600	[subset] fixes https://oss-fuzz.com/testcase-detail/6173520787800064.	commit adca4ce071d12998deea6bb53b223daa3aa163c5Author: Garret Rieger <grieger@google.com>Date:   Tue Mar 30 13:20:50 2021 -0700    [subset] fixes https://oss-fuzz.com/testcase-detail/6173520787800064.        Caused by incorrect bounds check in glyph closure for context lookups.
9825e3dd2	45de12893	Wed Sep 2 11:01:07 2020 -0700	[ENOMEM] fix access to unitialized memory. If the serialize() call fails to write the object then we can\'t safely read varstore_prime fields. Fixes https://oss-fuzz.com/testcase-detail/5137462782066688.	commit 9825e3dd2eaea4e267054adebc8d972e1f01cc0dAuthor: Garret Rieger <grieger@google.com>Date:   Wed Aug 26 17:31:50 2020 -0700    [ENOMEM] fix access to unitialized memory.    If the serialize() call fails to write the object then we can't safely read varstore_prime fields. Fixes https://oss-fuzz.com/testcase-detail/5137462782066688.
4ba8e3c6f	d307c24ab	Thu Jul 30 00:08:08 2020 +0430	[ENOMEM] Fix failure to check calloc return. Fixes https://oss-fuzz.com/testcase-detail/6246465148813312.	commit 4ba8e3c6fd34cf0ab5f97e607bac708a978fa9b3Author: Garret Rieger <grieger@google.com>Date:   Wed Jul 29 12:33:42 2020 -0700    [ENOMEM] Fix failure to check calloc return.    Fixes https://oss-fuzz.com/testcase-detail/6246465148813312.
d307c24ab	8b63de110	Thu Jul 30 00:08:08 2020 +0430	[ENOMEM] check resize() return. Fixes https://oss-fuzz.com/testcase-detail/5641892164009984.	commit d307c24abf37b2702706cf9df0fab571a99e2a70Author: Garret Rieger <grieger@google.com>Date:   Wed Jul 29 12:23:37 2020 -0700    [ENOMEM] check resize() return.    Fixes https://oss-fuzz.com/testcase-detail/5641892164009984.
22f7c61ac	f9bc37338	Sat Apr 18 15:42:30 2020 +0430	implement SID to glyph ID mapping with predefined Charset Also fixes oss-fuzz 21769	commit 22f7c61acf8073cb8db8db47e92aef18864a85c6Author: ariza <ariza@adobe.com>Date:   Fri Apr 17 23:49:51 2020 -0700    implement SID to glyph ID mapping with predefined Charset    Also fixes oss-fuzz 21769
0d5695983	57b7de032	Mon Apr 6 13:41:33 2020 +0430	[subset] fixes dangling object_t issue in FeatureVariationRecord Fixes https://crbug.com/oss-fuzz/21560 revert () does not clean up useless object_t. Adjust the order of subsetting substitutions and conditions to avoid dangling object_t.	commit 0d5695983e8bf3184ecd4cb92f737b9dfe5d6d25Author: Qunxin Liu <qxliu@google.com>Date:   Sun Apr 5 18:44:26 2020 -0700    [subset] fixes dangling object_t issue in FeatureVariationRecord    Fixes https://crbug.com/oss-fuzz/21560    revert () does not clean up useless object_t. Adjust the order of    subsetting substitutions and conditions to avoid dangling object_t.
0d729b4b7	6924e29f6	Sat Mar 7 13:20:41 2020 +0330	[avar] Fix out-of-bound read when input is bigger than all the coords	commit 0d729b4b7237934abfca0b5738ad4383f3f22476Author: Ebrahim Byagowi <ebrahim@gnu.org>Date:   Sat Mar 7 11:53:12 2020 +0330    [avar] Fix out-of-bound read when input is bigger than all the coords        'i' shouldn't become equal to array's length which as the increament    is happened at end of the loop, if the input is bigger than all the    table coords, it will be equal to array's length.        Fixes https://crbug.com/oss-fuzz/21092
f253f06cf	d38360397	Tue Mar 3 19:12:04 2020 +0330	[fuzz] Add another fixed case	commit f253f06cf368d74f1ec5d84c6439ae2a571e99f1Author: Ebrahim Byagowi <ebrahim@gnu.org>Date:   Tue Mar 3 18:57:13 2020 +0330    [fuzz] Add another fixed case        https://crbug.com/oss-fuzz/14626        another numerous subtables count which is fixed by d38360397
e57ced5fc	758fda728	Fri Feb 28 23:29:05 2020 +0330	[gvar] Add other possibly fixed fuzzer case	commit e57ced5fc06bd14a579a983db73e94416f6fedf4Author: Ebrahim Byagowi <ebrahim@gnu.org>Date:   Fri Feb 28 23:29:05 2020 +0330    [gvar] Add other possibly fixed fuzzer case        Speculatively should've been fixed by 61208401        https://crbug.com/oss-fuzz/20924 related
8eba66c1c	f44e1dc07	Thu Feb 27 20:26:54 2020 +0330	[gvar] Fix invalid memory access by refactoring GlyphVarData fetch logic	commit 8eba66c1c6d19bcc779a3b4e7b68251511986ee8Author: Ebrahim Byagowi <ebrahim@gnu.org>Date:   Thu Feb 27 15:58:58 2020 +0330    [gvar] Fix invalid memory access by refactoring GlyphVarData fetch logic        Fixes https://crbug.com/oss-fuzz/20906
d0aaba5c5	05a25c1a5	Wed Feb 26 09:35:32 2020 -0800	fixes oss-fuzz 20886	commit d0aaba5c5087781c7231e26fdd190c65baebde95Author: ariza <ariza@adobe.com>Date:   Wed Feb 26 09:35:32 2020 -0800    fixes oss-fuzz 20886        hb_set_t::resize () is needed after compact()
97229244e	7b42403c1	Wed Feb 12 15:41:51 2020 +0330	[fuzzer] Fix hb-set-fuzzer minor overflow issue	commit 97229244ebd2e50ec0021ecd442e3c1c27156a5cAuthor: Ebrahim Byagowi <ebrahim@gnu.org>Date:   Wed Feb 12 15:41:22 2020 +0330    [fuzzer] Fix hb-set-fuzzer minor overflow issue        Size shouldn't be smaller than the struct not its pointer size.        Fixes https://crbug.com/oss-fuzz/20655
1ab3924b3	7633b7695	Thu Jan 23 10:50:52 2020 -0800	refix PR #2087 subset PairPos1	commit 1ab3924b3171b408438f5df6a4d48124d9d1bd68Author: ariza <ariza@adobe.com>Date:   Wed Jan 22 11:20:56 2020 -0800    refix PR #2087 subset PairPos1        also added oss-fuzz 20211 data fixed by this
dc03a993d	a32ecc15a	Sun Jan 12 14:21:29 2020 +0330	Fix collect lookups logic of FeatureTableSubstitution (#2097)	commit dc03a993d0f2b6db7c5cfb11eaa6e8a4f6f274e6Author: Ebrahim Byagowi <ebrahim@gnu.org>Date:   Sun Jan 12 14:21:29 2020 +0330    Fix collect lookups logic of FeatureTableSubstitution (#2097)        https://crbug.com/oss-fuzz/20036
a32ecc15a	1a4c658b4	Sat Jan 11 15:37:24 2020 +0330	Fix collect lookups logic of FeatureVariationRecord	commit a32ecc15aec6518f5a126fb8f3643e563327f74dAuthor: Ebrahim Byagowi <ebrahim@gnu.org>Date:   Sat Jan 11 15:37:24 2020 +0330    Fix collect lookups logic of FeatureVariationRecord        As "Offset to a feature table substitution table, from beginning of the FeatureVariations table."    from https://docs.microsoft.com/en-us/typography/opentype/spec/chapter2 the record should    match its sanitize logic not the reverse way.        Fixes https://crbug.com/oss-fuzz/20021 and https://crbug.com/oss-fuzz/20022
d2ab1ec65	5e55a6d69	Fri Jan 10 07:54:16 2020 +0330	fixes oss-fuzz 19978: Null-dereference READ (#2091)	commit d2ab1ec65b1697b113b2b923c63e300659cf1998Author: Michiharu Ariza <ariza@adobe.com>Date:   Thu Jan 9 20:24:16 2020 -0800    fixes oss-fuzz 19978: Null-dereference READ (#2091)
8ed46c367	341407f7a	Tue Jan 7 23:43:53 2020 +0330	[fuzz] minor, add another already fixed case	commit 8ed46c3678cd4518efe5c9907bb9d22e6161bbd5Author: Ebrahim Byagowi <ebrahim@gnu.org>Date:   Tue Jan 7 23:43:53 2020 +0330    [fuzz] minor, add another already fixed case        https://crbug.com/oss-fuzz/19907
341407f7a	7950beecf	Tue Jan 7 09:10:24 2020 +0330	[fuzz] minor, upload another fixed case	commit 341407f7a52680be84144eb285e6cb09131b2956Author: Ebrahim Byagowi <ebrahim@gnu.org>Date:   Tue Jan 7 09:10:24 2020 +0330    [fuzz] minor, upload another fixed case        https://crbug.com/oss-fuzz/19878
7950beecf	8ed27757b	Mon Jan 6 21:25:00 2020 +0330	[subset] Fix null pointer dereference in hvar/vvar subset (#2085)	commit 7950beecfcc66194541437349c91625fd27c0071Author: Ebrahim Byagowi <ebrahim@gnu.org>Date:   Mon Jan 6 21:25:00 2020 +0330    [subset] Fix null pointer dereference in hvar/vvar subset (#2085)        Rest of the code assumes there is at least one subtable, lets return here if not.        * https://crbug.com/oss-fuzz/19827    * https://crbug.com/oss-fuzz/19847
a8f049c9a	7cde68f10	Tue Nov 5 22:26:36 2019 +0330	[fuzz] Upload testcase of https://crbug.com/oss-fuzz/18529	commit a8f049c9a18f166a826c78caa153330a1ec04214Author: Ebrahim Byagowi <ebrahim@gnu.org>Date:   Tue Nov 5 22:26:36 2019 +0330    [fuzz] Upload testcase of https://crbug.com/oss-fuzz/18529        Apparently false alarm per last comment and was ok locally also but lets have it here also
defe9b6da	b2fcca6e1	Fri Oct 25 13:09:47 2019 -0700	crash fix : Heap-buffer-overflow READ 2 https://bugs.chromium.org/p/oss-fuzz/issues/detail?id=18513	commit defe9b6da018bc85750c999454c51fde0cadb9b2Author: Qunxin Liu <qxliu@google.com>Date:   Fri Oct 25 10:07:26 2019 -0700    crash fix : Heap-buffer-overflow READ 2    https://bugs.chromium.org/p/oss-fuzz/issues/detail?id=18513
b2fcca6e1	9815ca033	Thu Oct 24 16:11:30 2019 -0700	 fuzzer crash fix  https://oss-fuzz.com/testcase-detail/5643107869917184	commit b2fcca6e14afc8085cc1c2491b2d7c780dad1450Author: Qunxin Liu <qxliu@google.com>Date:   Thu Oct 24 15:15:26 2019 -0700     fuzzer crash fix     https://oss-fuzz.com/testcase-detail/5643107869917184
b33a0d628	cf414e361	Tue Oct 22 01:01:08 2019 +0330	fuzzer crash fix: Null-dereference WRITE https://bugs.chromium.org/p/oss-fuzz/issues/detail?id=18363	commit b33a0d628e5e76992fdd02fd4178906137e6153cAuthor: Qunxin Liu <qxliu@google.com>Date:   Mon Oct 21 13:24:52 2019 -0700    fuzzer crash fix: Null-dereference WRITE    https://bugs.chromium.org/p/oss-fuzz/issues/detail?id=18363
e76678315	b66094ada	Mon Oct 21 22:17:06 2019 +0330	[fuzz] Add https://crbug.com/oss-fuzz/17898 testcase	commit e766783152b91fb20baf0c657586628fd7959b1bAuthor: Ebrahim Byagowi <ebrahim@gnu.org>Date:   Mon Oct 21 22:17:06 2019 +0330    [fuzz] Add https://crbug.com/oss-fuzz/17898 testcase
d3b984d37	41d6e95b0	Mon Sep 2 18:28:03 2019 +0430	Revert in-house pow10 (d80a3ea) and fix oss-fuzz/16922	commit d3b984d3790d61931d4427ad7c0ae6547f8f1076Author: Ebrahim Byagowi <ebrahim@gnu.org>Date:   Mon Sep 2 18:18:25 2019 +0430    Revert in-house pow10 (d80a3ea) and fix oss-fuzz/16922        Probably can be fixed but merging it was wrong so let's revert.
28aba780c	541f3c2d7	Sat Aug 24 16:11:21 2019 +0430	[subset] Fix blob leak of _subset2 when returns early	commit 28aba780c4035cc85a31b778db0f5553c896dd6aAuthor: Ebrahim Byagowi <ebrahim@gnu.org>Date:   Fri Aug 23 16:47:15 2019 +0430    [subset] Fix blob leak of _subset2 when returns early        Fixes https://crbug.com/oss-fuzz/16639
3efb7af7e	e66eb21a4	Mon May 20 11:37:16 2019 -0400	[STAT] Fix sanitize condition	commit 3efb7af7e28061f8cd138eb2ed5261bf521abc63Author: Behdad Esfahbod <behdad@behdad.org>Date:   Mon May 20 11:37:16 2019 -0400    [STAT] Fix sanitize condition        Oops!        Fixes https://oss-fuzz.com/testcase-detail/5696825891225600
df237d2fe	02ae2591d	Wed May 8 14:17:14 2019 -0700	[test] Add https://crbug.com/oss-fuzz/14641 testcase	commit df237d2fe78086ad16bdbd2cc60639ae9ce909d6Author: Ebrahim Byagowi <ebrahim@gnu.org>Date:   Wed May 8 14:17:14 2019 -0700    [test] Add https://crbug.com/oss-fuzz/14641 testcase        As 503748d fix
62c6e1707	6977a95fe	Sun Apr 28 10:55:07 2019 -0700	[test] Add crbug.com/oss-fuzz/14474 testcase	commit 62c6e170728303f4225aaa25523675fc260ae1abAuthor: Ebrahim Byagowi <ebrahim@gnu.org>Date:   Sun Apr 28 10:55:07 2019 -0700    [test] Add crbug.com/oss-fuzz/14474 testcase        Fixed at 6977a95f
ba0386060	63a210848	Thu Apr 18 18:18:05 2019 -0400	fix oss-fuzz issue 14345	commit ba0386060d92dffcde2d14f9e523a46ea8713de2Author: Michiharu Ariza <ariza@adobe.com>Date:   Thu Apr 18 14:53:35 2019 -0700    fix oss-fuzz issue 14345
6879efc2c	a262eb3d0	Thu Jan 17 14:08:02 2019 -0500	[AAT] Fix anchor bound checking, again	commit 6879efc2c1596d11a6a6ad296f80063b558d5e0fAuthor: Behdad Esfahbod <behdad@behdad.org>Date:   Thu Jan 17 14:06:37 2019 -0500    [AAT] Fix anchor bound checking, again        Fixes https://bugs.chromium.org/p/oss-fuzz/issues/detail?id=12532    Fixes https://bugs.chromium.org/p/chromium/issues/detail?id=922303
7a6686a58	a3fa7d333	Mon Jan 14 15:09:14 2019 -0500	[AAT] Fix mort ContextualSubtable offset access	commit 7a6686a589ed6bf17a5af0b8012501e4d4ee2dedAuthor: Behdad Esfahbod <behdad@behdad.org>Date:   Mon Jan 14 15:09:14 2019 -0500    [AAT] Fix mort ContextualSubtable offset access        Fixes https://bugs.chromium.org/p/oss-fuzz/issues/detail?id=12312
7b48641aa	97f67a3c3	Tue Jan 8 15:37:48 2019 -0500	fix leak in subset_enc_supp_codes (#1537)	commit 7b48641aa8551115d21c534940ac4fb364e5ab92Author: Michiharu Ariza <ariza@adobe.com>Date:   Tue Jan 8 12:37:48 2019 -0800    fix leak in subset_enc_supp_codes (#1537)        oss-fuzz issue 12310
59345cdef	20245f000	Thu Dec 6 13:36:26 2018 -0800	[CFF] Refix oss-fuzz 11714: set_blends (PR #1458) (#1460)	commit 59345cdef38cf1f514a6a0eb6e8852350acb6166Author: Michiharu Ariza <ariza@adobe.com>Date:   Thu Dec 6 13:36:26 2018 -0800    [CFF] Refix oss-fuzz 11714: set_blends (PR #1458) (#1460)        * pass subarray of stack to set_blends        * get_subarray to return a value, not ref        * restored error check (with tweak)
d9dabc00e	81cfd3c77 010e2ddb3	Wed Dec 5 15:39:34 2018 -0800	Merge pull request #1454 from harfbuzz/cff-fixbcd	commit d9dabc00e9278a346e85538212c126da7e610d55Merge: 81cfd3c77 010e2ddb3Author: Behdad Esfahbod <behdad@behdad.org>Date:   Wed Dec 5 15:39:34 2018 -0800    Merge pull request #1454 from harfbuzz/cff-fixbcd        [CFF] fix oss-fuzz issue 11674: parse_bcd
6708c5595	8394a6cb2	Wed Dec 5 12:51:18 2018 -0800	fix oss-fuzz issue 11675 (ASSERT: count <= str.len)	commit 6708c5595fc6babdae0132f8a23cbe3558a58703Author: Michiharu Ariza <ariza@adobe.com>Date:   Wed Dec 5 12:51:18 2018 -0800    fix oss-fuzz issue 11675 (ASSERT: count <= str.len)        Also added an additional error check to avail ()
79e7e3445	cf4b7db6b 78f639b8b	Wed Dec 5 13:25:18 2018 +0330	Merge pull request #1449 from harfbuzz/cff-fixcharset	commit 79e7e3445efef2dc57f8a10c7e355e802af08868Merge: cf4b7db6b 78f639b8bAuthor: Ebrahim Byagowi <ebrahim@gnu.org>Date:   Wed Dec 5 13:25:18 2018 +0330    Merge pull request #1449 from harfbuzz/cff-fixcharset        [CFF] fix for oss-fuzz 11657: Charset overrun
32cc46c75	d0a250a7b	Wed Dec 5 09:02:34 2018 +0330	[CFF] fix oss-fuzz issue 11670: NULL dereference (#1450)	commit 32cc46c75a5f163f254b7998ed9193d5bbc85e4bAuthor: Michiharu Ariza <ariza@adobe.com>Date:   Tue Dec 4 21:32:34 2018 -0800    [CFF] fix oss-fuzz issue 11670: NULL dereference (#1450)        * guard against no subr access        * code tweak        * add minimized testcase for oss-fuzz 11670 (Null deference)
d3d2f32c6	d0a250a7b	Tue Dec 4 13:51:26 2018 -0800	fix oss-fuzz 11657: buffer overrun	commit d3d2f32c6e85de1d7fbbb18afef356e09110e61cAuthor: Michiharu Ariza <ariza@adobe.com>Date:   Tue Dec 4 13:51:26 2018 -0800    fix oss-fuzz 11657: buffer overrun        Check overrun in Charset1_2::get_glyph
9473463f5	c968869f2	Tue Dec 4 09:58:48 2018 -0800	fix attempt for oss-fuzz 11662 leak	commit 9473463f5c884fcb1de8a7ba7410da2601e6ffa8Author: Michiharu Ariza <ariza@adobe.com>Date:   Tue Dec 4 09:58:48 2018 -0800    fix attempt for oss-fuzz 11662 leak
cb4bf85b1	af727b4e6	Fri Nov 16 02:02:24 2018 -0500	[hdmx] Fix bounds checking	commit cb4bf85b14afb3761a85e3da130f2844ac94a49dAuthor: Behdad Esfahbod <behdad@behdad.org>Date:   Fri Nov 16 02:02:24 2018 -0500    [hdmx] Fix bounds checking        Fixes https://bugs.chromium.org/p/oss-fuzz/issues/detail?id=11351
c8f4cc492	1300f027a	Mon Nov 12 14:11:29 2018 -0500	[kerx] Fix integer overflow in multiply	commit c8f4cc49272d8bcd47706a6306a625d724349f5aAuthor: Behdad Esfahbod <behdad@behdad.org>Date:   Mon Nov 12 14:11:29 2018 -0500    [kerx] Fix integer overflow in multiply        Fixes https://oss-fuzz.com/v2/testcase-detail/5754863779053568
752bd8a19	f9e0552de	Sat Nov 10 21:13:32 2018 -0500	[kerx] Fix Format1 tupleKern sanitization	commit 752bd8a192af209f44dacaf1d3510d0bfc6354b8Author: Behdad Esfahbod <behdad@behdad.org>Date:   Sat Nov 10 21:13:13 2018 -0500    [kerx] Fix Format1 tupleKern sanitization        Fixes https://bugs.chromium.org/p/oss-fuzz/issues/detail?id=11312    Fixes https://bugs.chromium.org/p/oss-fuzz/issues/detail?id=11305
3a9fa8c02	b308aaccf	Sat Nov 10 01:58:26 2018 -0500	[qsort] Fix O(N^2) behavior if all array elements are the same	commit 3a9fa8c026bf28bf87e20ec95327f74fd7070b74Author: Behdad Esfahbod <behdad@behdad.org>Date:   Sat Nov 10 01:56:37 2018 -0500    [qsort] Fix O(N^2) behavior if all array elements are the same        Fixes https://bugs.chromium.org/p/oss-fuzz/issues/detail?id=11327        Reported as https://github.com/noporpoise/sort_r/issues/7
8d98c51d1	f074da8c2	Sat Nov 3 15:14:57 2018 -0400	[kern] Third try fix access violation in Format3	commit 8d98c51d133b058a845ed7a84bfe8a43083bbb03Author: Behdad Esfahbod <behdad@behdad.org>Date:   Sat Nov 3 15:14:57 2018 -0400    [kern] Third try fix access violation in Format3        Fixes https://bugs.chromium.org/p/oss-fuzz/issues/detail?id=11245
f074da8c2	93ef20a83	Sat Nov 3 15:07:39 2018 -0400	[kern] Really fix access violation in Format3	commit f074da8c2b6a7061c71d12213a6c494c119eb20eAuthor: Behdad Esfahbod <behdad@behdad.org>Date:   Sat Nov 3 15:06:45 2018 -0400    [kern] Really fix access violation in Format3        Fixes https://bugs.chromium.org/p/oss-fuzz/issues/detail?id=11245
0589787ff	5570c87f2	Sat Nov 3 14:59:40 2018 -0400	[kern] Fix access violation in Format3	commit 0589787ff55bff9bd5849c4443229e926cc574a5Author: Behdad Esfahbod <behdad@behdad.org>Date:   Sat Nov 3 14:58:54 2018 -0400    [kern] Fix access violation in Format3        Fixes https://bugs.chromium.org/p/oss-fuzz/issues/detail?id=11245
0af3d176a	edaa76825	Tue Oct 30 17:05:28 2018 +0200	[sbix] Fix memory leak in early return	commit 0af3d176a64c0a57c7acb2a64ce8b9d08f449241Author: Khaled Hosny <khaledhosny@eglug.org>Date:   Tue Oct 30 17:05:28 2018 +0200    [sbix] Fix memory leak in early return        Fixes https://bugs.chromium.org/p/oss-fuzz/issues/detail?id=11210
00ae4be6b	30eab97a0	Fri Oct 26 21:59:20 2018 -0700	[morx] Fix bailing out ligation at end-of-text	commit 00ae4be6bf8b1d0800043167c5cf95187ac12515Author: Behdad Esfahbod <behdad@behdad.org>Date:   Fri Oct 26 21:59:20 2018 -0700    [morx] Fix bailing out ligation at end-of-text        Check was after a move_to, which wouldn't work.        Fixes https://bugs.chromium.org/p/oss-fuzz/issues/detail?id=11147
68b705076	00fdbca4f	Sat Oct 20 12:20:57 2018 -0700	[kerx] Fix sanitize of KerxSubtableFormat2::array read	commit 68b705076808d4b0a4ac3bfa945b8f9ae23db1dfAuthor: Behdad Esfahbod <behdad@behdad.org>Date:   Sat Oct 20 12:09:41 2018 -0700    [kerx] Fix sanitize of KerxSubtableFormat2::array read        Fixes https://bugs.chromium.org/p/oss-fuzz/issues/detail?id=11033
00fdbca4f	f11c55766	Sat Oct 20 12:20:57 2018 -0700	[aat] Fix LookupFormat10 sanitize	commit 00fdbca4f6a5c4623b9c4838da502cccce8aaa74Author: Behdad Esfahbod <behdad@behdad.org>Date:   Sat Oct 20 12:04:51 2018 -0700    [aat] Fix LookupFormat10 sanitize        Fixes https://bugs.chromium.org/p/oss-fuzz/issues/detail?id=11060
83780308b	b9478e28a	Wed Oct 17 22:34:16 2018 -0700	[aat] Fix sanitize slowdown	commit 83780308b41b029513ac2568b6688d3eaad77338Author: Behdad Esfahbod <behdad@behdad.org>Date:   Wed Oct 17 22:34:16 2018 -0700    [aat] Fix sanitize slowdown        Fixes https://bugs.chromium.org/p/oss-fuzz/issues/detail?id=11034
11703afce	4c27da763	Mon Oct 15 21:17:08 2018 -0700	[kerx] Fix Format6 sanitize	commit 11703afce6cebbb4c5e7cdea59ca59a1787608b8Author: Behdad Esfahbod <behdad@behdad.org>Date:   Mon Oct 15 21:16:58 2018 -0700    [kerx] Fix Format6 sanitize        Fixes https://oss-fuzz.com/v2/testcase-detail/5650286710882304
4c27da763	0f85edb77	Mon Oct 15 19:46:45 2018 -0700	[CBDT] Fix more offsetting	commit 4c27da7638f6d072c3ff93223488c4ab316236c1Author: Behdad Esfahbod <behdad@behdad.org>Date:   Mon Oct 15 19:46:45 2018 -0700    [CBDT] Fix more offsetting        Fixes https://oss-fuzz.com/v2/testcase-detail/5750379279548416
60c139767	7efa38257	Sun Oct 14 19:38:14 2018 -0700	[buffer] Fix output_glyph at end of buffer	commit 60c13976733ea05e71c66c486d62e31ffbb71bacAuthor: Behdad Esfahbod <behdad@behdad.org>Date:   Sun Oct 14 19:36:46 2018 -0700    [buffer] Fix output_glyph at end of buffer        Part of https://bugs.chromium.org/p/oss-fuzz/issues/detail?id=10955
40f2b9355	44af1f93e	Sun Oct 14 14:56:32 2018 -0700	[kerx] Fix Format1 sanitize	commit 40f2b9355cf827c7b82ea5e55b112ce0032a9abfAuthor: Behdad Esfahbod <behdad@behdad.org>Date:   Sun Oct 14 14:56:32 2018 -0700    [kerx] Fix Format1 sanitize        Fixes https://bugs.chromium.org/p/oss-fuzz/issues/detail?id=10948
2c824d364	e940530c9	Thu Oct 11 16:43:05 2018 -0400	[aat] Fix two wrongs that made a right before!	commit 2c824d3644e16643c2bbe85fb88f9fb6fed53ce7Author: Behdad Esfahbod <behdad@behdad.org>Date:   Thu Oct 11 16:41:01 2018 -0400    [aat] Fix two wrongs that made a right before!        Unfortunately our static asserts (DEFINE_SIZE_STATIC) don't actually    fail when used in templates, thanks to SFINAE.  Le sighs.        Probably fixes https://oss-fuzz.com/v2/testcase-detail/5740171484463104
e940530c9	1d995a340	Thu Oct 11 15:56:17 2018 -0400	[aat] Fix mul overflow	commit e940530c9723c3a581a5d5b31e5f419865dd6cc7Author: Behdad Esfahbod <behdad@behdad.org>Date:   Thu Oct 11 15:56:17 2018 -0400    [aat] Fix mul overflow        Fixes https://bugs.chromium.org/p/oss-fuzz/issues/detail?id=10897
16fba5b21	7ab49de98	Wed Nov 29 16:08:11 2017 -0800	[ot] Fix Extension type recurse to disallow recursing to another Extension	commit 16fba5b2158a0e093e6df32637eba5058942e299Author: Behdad Esfahbod <behdad@behdad.org>Date:   Wed Nov 29 16:08:11 2017 -0800    [ot] Fix Extension type recurse to disallow recursing to another Extension        Particularly hazardous if the second layer mixes forward and backward lookups.        Fixes https://bugs.chromium.org/p/oss-fuzz/issues/detail?id=4336
e20e47eaa	7b40876a5	Tue Nov 14 20:25:29 2017 -0800	[glyf] Try fixing undefined-behavior	commit e20e47eaa1b7dd33ac63ab0eaa8f5ea1bf7775c2Author: Behdad Esfahbod <behdad@behdad.org>Date:   Tue Nov 14 20:25:29 2017 -0800    [glyf] Try fixing undefined-behavior        Might fix https://bugs.chromium.org/p/oss-fuzz/issues/detail?id=1463
e5930722d	fcd6c338f	Tue Nov 14 15:47:55 2017 -0800	Fix invalid buffer access in OOM times	commit e5930722d485207ca158612a2b08816337fed7e8Author: Behdad Esfahbod <behdad@behdad.org>Date:   Tue Nov 14 15:47:55 2017 -0800    Fix invalid buffer access in OOM times        Hopefully fully fixes    https://bugs.chromium.org/p/oss-fuzz/issues/detail?id=1856
8eed9cb11	b68fba4dc	Thu Nov 9 18:09:40 2017 -0800	[kern] Fix invalid memory access if offset is zero	commit 8eed9cb11e28728a58e265fde5c13f519ccbdb4eAuthor: Behdad Esfahbod <behdad@behdad.org>Date:   Thu Nov 9 18:09:40 2017 -0800    [kern] Fix invalid memory access if offset is zero        If offset is zero, we return Null() object.  Wasn't prepared for that.        Fixes https://bugs.chromium.org/p/oss-fuzz/issues/detail?id=4088
c4f4c0a2f	822035ce7	Wed Nov 8 17:04:31 2017 -0800	Fix indexing in unsafe-to-break marking for \'stch\' feature	commit c4f4c0a2faab0635dd2ab3078243994ad3066287Author: Behdad Esfahbod <behdad@behdad.org>Date:   Wed Nov 8 17:04:31 2017 -0800    Fix indexing in unsafe-to-break marking for 'stch' feature        Fixes https://bugs.chromium.org/p/oss-fuzz/issues/detail?id=4099
7c561dacc	d6f612fac	Thu Oct 19 11:35:51 2017 -0700	[myanmar] Fix unsafe usage of FLAG_SAFE()	commit 7c561dacc3c5fb9306db8bda27b7289331bd523fAuthor: Behdad Esfahbod <behdad@behdad.org>Date:   Thu Oct 19 11:35:51 2017 -0700    [myanmar] Fix unsafe usage of FLAG_SAFE()        The commit f559c633073f63b9d87cb2440048b4413cfa1c05 caused    "undefined-shift" errors in Myanmar shaper as we changed the    numeric value of type D from 19 to 32 there, making the    "FLAG_SAFE (info.myanmar_category())" wrong.        Fixes https://bugs.chromium.org/p/oss-fuzz/issues/detail?id=3546
14a639ea5	e43aad555	Fri Aug 11 11:30:39 2017 -0700	[unsafe-to-break] Fix Use-of-uninitialized-value in unsafe_to_break_set_mask	commit 14a639ea592cba971e5548f0942dd395c602c7a8Author: Behdad Esfahbod <behdad@behdad.org>Date:   Fri Aug 11 11:30:39 2017 -0700    [unsafe-to-break] Fix Use-of-uninitialized-value in unsafe_to_break_set_mask        Fixes https://bugs.chromium.org/p/oss-fuzz/issues/detail?id=3011
85630996b	6685d281d	Sat Feb 25 13:32:20 2017 -0800	Fix buffer-overrun with Bengali reph positioning code	commit 85630996b8afa699f7b5d19346cdf5c72fcd6e2dAuthor: Behdad Esfahbod <behdad@behdad.org>Date:   Sat Feb 25 13:30:38 2017 -0800    Fix buffer-overrun with Bengali reph positioning code        This has no security implications whatsoever since we always keep    and extra element at the end of buffer, just in case.        Discovered by oss-fuzz    CC https://github.com/behdad/harfbuzz/issues/139    Fixes https://bugs.chromium.org/p/oss-fuzz/issues/detail?id=660
