127ad70782	61d16a6501	Tue Jul 25 17:54:14 2023 +0200	Fix open_basedir leak	commit 127ad70782f9bf5c245a7b55a1c420f2d67b993fAuthor: Ilija Tovilo <ilija.tovilo@me.com>Date:   Mon Jul 24 23:23:32 2023 +0200    Fix open_basedir leak        Fixes oss-fuzz #60741    Closes GH-11780
060df83a98	9c47f33a5f	Wed Jul 12 11:01:23 2023 +0200	Fix double-compilation of arrow-function	commit 060df83a985e9cba523400bbb59462e56d52cf37Author: Ilija Tovilo <ilija.tovilo@me.com>Date:   Sat Jul 8 13:00:23 2023 +0200    Fix double-compilation of arrow-function        We transform the arrow function by nesting the expression into a return    statement. If we compile the arrow function twice this would be done twice,    leading to a compile assertion.        Fix oss-fuzz #60411    Closes GH-11632
dc73b73f8b	3483229199	Wed Jun 28 20:35:29 2023 +0200	Fix mis-compilation of by-reference nullsafe operator	commit dc73b73f8b48e178b5eed40c15af05f6a2c905c3Author: Ilija Tovilo <ilija.tovilo@me.com>Date:   Mon Jun 26 19:08:52 2023 +0200    Fix mis-compilation of by-reference nullsafe operator        Fixes oss-fuzz #60011    Closes GH-11540        Co-authored-by: Dmitry Stogov <dmitry@zend.com>    Co-authored-by: Niels Dossche <7771979+nielsdos@users.noreply.github.com>
fae42c8bd8	6c015ae8fe	Wed Jun 21 14:59:05 2023 +0200	Fix assertion violation for invalid class const objects in const expressions (#11458)	commit fae42c8bd832174a17a804d0da0bfd624fd071e4Author: Ilija Tovilo <ilija.tovilo@me.com>Date:   Wed Jun 21 14:59:05 2023 +0200    Fix assertion violation for invalid class const objects in const expressions (#11458)        Fixes oss-fuzz #59764
0a04c008d0	12c30a8da3	Thu May 11 14:33:49 2023 +0200	Fix potential NULL pointer access in zend_fiber_object_gc	commit 0a04c008d0df2cb5e3d54c10d2f73516730ee384Author: Ilija Tovilo <ilija.tovilo@me.com>Date:   Thu May 11 14:33:49 2023 +0200    Fix potential NULL pointer access in zend_fiber_object_gc        Accidentally introduced in GH-11208.        Fixes oss-fuzz #58795
25ad171f63	8fc023cbae	Tue May 2 12:02:20 2023 +0300	JIT: Fixed inaccurate range inference usage for UNDEF/NULL/FALSE	commit 25ad171f63b7ba8b8fd323e26466951f512a666fAuthor: Dmitry Stogov <dmitry@zend.com>Date:   Tue May 2 12:02:20 2023 +0300    JIT: Fixed inaccurate range inference usage for UNDEF/NULL/FALSE        Fixes oss-fuzz #58459
5855bdcd6c	0ab51a9561	Thu Apr 20 10:18:18 2023 +0200	Fix reference returned from CallbackFilterIterator::accept()	commit 5855bdcd6c83ce272075bdde42af55e423e441fbAuthor: Ilija Tovilo <ilija.tovilo@me.com>Date:   Thu Apr 20 10:18:18 2023 +0200    Fix reference returned from CallbackFilterIterator::accept()        Fixes oss-fuzz #58181
b340e10d6e	5a4083181b	Mon Apr 17 15:23:06 2023 +0200	Fix uninitialized memory in parse_ini_string()	commit b340e10d6e32df0ca586e06d0c9406402b47205fAuthor: Ilija Tovilo <ilija.tovilo@me.com>Date:   Mon Apr 17 14:15:22 2023 +0200    Fix uninitialized memory in parse_ini_string()        Introduced by GH-11014        Fixes oss-fuzz #58080    Closes GH-11092
c4a1100f19	4082d425a9	Mon Apr 10 16:41:43 2023 +0200	Fix unevaluated rhs of class constant fetch in constant expression (#11047)	commit c4a1100f190efce41eab728e84788d2491cc4c71Author: Ilija Tovilo <ilija.tovilo@me.com>Date:   Mon Apr 10 16:41:43 2023 +0200    Fix unevaluated rhs of class constant fetch in constant expression (#11047)        Fixes oss-fuzz #57821
1f5d9534ae	9b15537e9a	Mon Mar 27 17:57:54 2023 +0300	Fix incorrect optimization	commit 1f5d9534ae342871e247294f36276f20aba238e1Author: Dmitry Stogov <dmitry@zend.com>Date:   Mon Mar 27 17:57:54 2023 +0300    Fix incorrect optimization        Fixes oss-fuzz #57482
57029ce92e	c2f3a605f0	Sat Mar 25 17:42:39 2023 +0100	Fix buffer-overflow in php_fgetcsv() with \\0 delimiter and enclosure	commit 57029ce92ec5312752eaf436e4e61742d838a520Author: Ilija Tovilo <ilija.tovilo@me.com>Date:   Fri Mar 24 15:19:58 2023 +0100    Fix buffer-overflow in php_fgetcsv() with \0 delimiter and enclosure        Fixes oss-fuzz #57392    Closes GH-10923
ce5f75fb6f	b1a49ff053	Mon Mar 13 09:38:11 2023 +0000	Fixed oss-fuzz #56931	commit ce5f75fb6f5d572060c0401d2cc295689916acb5Author: Derick Rethans <github@derickrethans.nl>Date:   Mon Mar 13 09:38:11 2023 +0000    Fixed oss-fuzz #56931
7202fe16b7	22c9e7e27e	Mon Mar 6 14:55:34 2023 +0100	Fix GH-10709: UAF in recursive AST evaluation	commit 7202fe16b7fc3691ef151162e9aba4d665edecd5Author: Ilija Tovilo <ilija.tovilo@me.com>Date:   Mon Feb 27 13:47:57 2023 +0100    Fix GH-10709: UAF in recursive AST evaluation        Fixes https://oss-fuzz.com/testcase-detail/6445949468934144    Closes GH-10718
35a36b13e5	f291d37a1a	Thu Feb 2 19:18:17 2023 +0100	Fix comp-time and constant evaluation of dynamic class constant fetch	commit 35a36b13e539c252d309f1799b5f653cf76921bdAuthor: Ilija Tovilo <ilija.tovilo@me.com>Date:   Thu Feb 2 15:40:50 2023 +0100    Fix comp-time and constant evaluation of dynamic class constant fetch        Fixes GH-10486    Fixes oss-fuzz #55436    Fixes oss-fuzz #55472    Closes GH-10487
81607a62ca	ec4939b170	Mon Jan 30 13:15:05 2023 +0300	Fix type inference	commit 81607a62ca85d016699e16344a5cebca9edba46aAuthor: Dmitry Stogov <dmitry@zend.com>Date:   Mon Jan 30 13:15:05 2023 +0300    Fix type inference        Fixes oss-fuzz #55358
0464524292	e7b6c2efd1	Mon Dec 26 13:20:55 2022 +0300	Fix memory leak because of incorrect optimization	commit 0464524292635eb5de1764845f52e7aa877138e7Author: Dmitry Stogov <dmitry@zend.com>Date:   Mon Dec 26 13:20:55 2022 +0300    Fix memory leak because of incorrect optimization        Fixes oss-fuzz #54488
683285165e	351055e434	Mon Dec 19 12:11:16 2022 +0300	Fix memory leak	commit 683285165e94bbe8ed387e3850b0b776b804f948Author: Dmitry Stogov <dmitry@zend.com>Date:   Mon Dec 19 12:11:16 2022 +0300    Fix memory leak        Fixes oss-fuzz #54320
a8bd342397	b8c1b5e9fa	Mon Nov 14 12:35:09 2022 +0300	Fix memory leak	commit a8bd342397cc783870b9e4d3fcc4775402790136Author: Dmitry Stogov <dmitry@zend.com>Date:   Mon Nov 14 12:35:09 2022 +0300    Fix memory leak        Fizes oss-fuzz #53143
05b63b1593	de4b502fef	Mon Nov 7 12:19:54 2022 +0300	Don\'t check "fake" closures (fix assertion)	commit 05b63b15932393e43e7c9cd80f3e100fb8a89f3bAuthor: Dmitry Stogov <dmitry@zend.com>Date:   Mon Nov 7 12:19:54 2022 +0300    Don't check "fake" closures (fix assertion)        Fixes oss-fuzz #53078
f31f464cec	1cd217038e	Mon Nov 7 11:07:58 2022 +0300	Fix memory leak	commit f31f464cec530783c6d783cfd0c4c7a6ddade30aAuthor: Dmitry Stogov <dmitry@zend.com>Date:   Mon Nov 7 11:07:58 2022 +0300    Fix memory leak        Fixes oss-fuzz #52999
261a08af65	2caa79e963	Mon Oct 24 12:02:28 2022 +0300	JIT: Fix incorrect EX(opline) override	commit 261a08af65168e24c43a81321284f3f461f3500dAuthor: Dmitry Stogov <dmitry@zend.com>Date:   Mon Oct 24 12:02:28 2022 +0300    JIT: Fix incorrect EX(opline) override        Fixes oss-fuzz #52674
eecbb60db6	d282345e11	Mon Oct 17 15:08:21 2022 +0300	Fix memory leak	commit eecbb60db62bf3c7062eaf1bcb4e0a1b041d0edcAuthor: Dmitry Stogov <dmitry@zend.com>Date:   Mon Oct 17 15:08:21 2022 +0300    Fix memory leak        Fixes oss-fuzz #52479
ed652a514f	5ca4113386	Mon Oct 3 17:08:11 2022 +0300	Fix register allocation (missing store)	commit ed652a514fab0cbe797504f850ea64bd2ed1c4d2Author: Dmitry Stogov <dmitry@zend.com>Date:   Mon Oct 3 17:08:11 2022 +0300    Fix register allocation (missing store)        This fixes oss-fuzz #52022
94b8c2da9f	2ed103f733	Mon Sep 26 12:19:12 2022 +0300	Fixed type inference	commit 94b8c2da9f4fbaf3b2c143ea31c0314bef317da6Author: Dmitry Stogov <dmitry@zend.com>Date:   Mon Sep 26 12:19:12 2022 +0300    Fixed type inference        Fixes oss-fuzz #51640
c083efb779	b655451439	Mon Sep 26 12:02:03 2022 +0300	Fix memory leak	commit c083efb779d9bcdaa01da87ae938cf0add9b2f59Author: Dmitry Stogov <dmitry@zend.com>Date:   Mon Sep 26 12:02:03 2022 +0300    Fix memory leak        Fixes oss-fuzz #51622
8258b7731b	e488f7b0eb	Mon Sep 26 11:43:38 2022 +0300	Fix memory leak	commit 8258b7731ba8cde929e1f3504577af0a4440cad4Author: Dmitry Stogov <dmitry@zend.com>Date:   Mon Sep 26 11:43:38 2022 +0300    Fix memory leak        Fixes oss-fuzz #51622
7496a400aa	4767b0999d	Mon Sep 19 15:45:34 2022 +0300	Fix SSA construction and type inference	commit 7496a400aae122414056f2b1f7294b12b458ae96Author: Dmitry Stogov <dmitry@zend.com>Date:   Mon Sep 19 15:45:34 2022 +0300    Fix SSA construction and type inference        Fixes oss-fuzz #51476
8a1f7fa721	54701ea3e7	Mon Sep 19 13:03:24 2022 +0300	Fix memory leak	commit 8a1f7fa7216800e64f3d59b1a9c3285ca048a0feAuthor: Dmitry Stogov <dmitry@zend.com>Date:   Mon Sep 19 13:03:24 2022 +0300    Fix memory leak        Fixes oss-fuzz #51451
81cb005ef7	6aedc5eaf0	Mon Sep 5 12:55:50 2022 +0300	Fix type inference	commit 81cb005ef7787954b4adab3543e3c443f9dd293eAuthor: Dmitry Stogov <dmitry@zend.com>Date:   Mon Sep 5 12:55:50 2022 +0300    Fix type inference        Fixes oss-fuzz #50792
4135e6011c	725cb4e8ad	Mon Aug 29 14:53:48 2022 +0300	Fix memory leak	commit 4135e6011c2831cce29c257c6c46f32184d34d2bAuthor: Dmitry Stogov <dmitry@zend.com>Date:   Mon Aug 29 14:53:48 2022 +0300    Fix memory leak        Fixes oss-fuzz #50616
4b884bedc8	48d2578d41	Mon Aug 29 14:36:16 2022 +0300	JIT: Fix missing type store	commit 4b884bedc8de35ceb90d3e6978be580d5ce89864Author: Dmitry Stogov <dmitry@zend.com>Date:   Mon Aug 29 14:36:16 2022 +0300    JIT: Fix missing type store        Fixes oss-fuzz #50653
95befc786a	2a33280ceb	Mon Aug 22 21:11:39 2022 +0300	Fix type inference	commit 95befc786ae89afc5b9b6c6d26fa26883e50ebf0Author: Dmitry Stogov <dmitry@zend.com>Date:   Mon Aug 22 21:11:39 2022 +0300    Fix type inference        Fixes oss-fuzz #50272
73c2d79fc5	c9c51eb1f1	Mon Aug 22 17:47:07 2022 +0300	Fix memory leaks	commit 73c2d79fc5a517340cc629c053c6ce0d096afaf7Author: Dmitry Stogov <dmitry@zend.com>Date:   Mon Aug 22 17:47:07 2022 +0300    Fix memory leaks        Fixes oss-fuzz #50078
c9c51eb1f1	bb341210f5	Mon Aug 22 15:38:41 2022 +0300	Tracing JIT: Fix incorrect guard elimination	commit c9c51eb1f15117517384ba4e1707af326b3a161bAuthor: Dmitry Stogov <dmitry@zend.com>Date:   Mon Aug 22 15:38:41 2022 +0300    Tracing JIT: Fix incorrect guard elimination        Fixes oss-fuzz #49917
69c10aed58	4b19b85eb6	Mon Aug 1 15:32:49 2022 +0300	Fix incorrect guard motion out of the loop	commit 69c10aed5846f8378a04fd6cd24e4b53dafc52c5Author: Dmitry Stogov <dmitry@zend.com>Date:   Mon Aug 1 15:32:49 2022 +0300    Fix incorrect guard motion out of the loop        Fixes oss-fuzz #49579
af1a7b7b72	4147257fc4	Mon Aug 1 14:00:19 2022 +0300	Fix SSA reconstruction when body of "foreach" loop is removed	commit af1a7b7b72de7db01f32e84bdc7ced904cd68b81Author: Dmitry Stogov <dmitry@zend.com>Date:   Mon Aug 1 14:00:19 2022 +0300    Fix SSA reconstruction when body of "foreach" loop is removed        Fixes oss-fuzz #49483
d50875c822	e70d282077	Mon Jul 25 15:53:06 2022 +0300	Fix type inference	commit d50875c822a8f37262690f94de803e20f12ad23dAuthor: Dmitry Stogov <dmitry@zend.com>Date:   Mon Jul 25 15:53:06 2022 +0300    Fix type inference        Fixes oss-fuzz #49423 and #49474
e70d282077	cc465ba0bb	Mon Jul 25 15:24:26 2022 +0300	JIT: Fix missing type stote	commit e70d2820774b90af2ce99dbfcd481a8a80e3e44cAuthor: Dmitry Stogov <dmitry@zend.com>Date:   Mon Jul 25 15:24:26 2022 +0300    JIT: Fix missing type stote        Fixes oss-fuzz #49402
44b86aee31	3962f00b01	Mon Jul 25 12:04:46 2022 +0300	Fix memory leak	commit 44b86aee31cabb35d0ebd6ee0e7fd9c365c7c50cAuthor: Dmitry Stogov <dmitry@zend.com>Date:   Mon Jul 25 12:04:46 2022 +0300    Fix memory leak        Fixes oss-fuzz #49272
c6eb5dc5fd	f6aa7a4960	Mon Jul 18 15:40:11 2022 +0300	Fix possible crash in case of exception	commit c6eb5dc5fdf8373b3f6cd1c121100cad7e75f69aAuthor: Dmitry Stogov <dmitry@zend.com>Date:   Mon Jul 18 15:40:11 2022 +0300    Fix possible crash in case of exception        Fixes oss-fuzz #49068
f24548e217	d0962859f4	Mon Jul 18 15:11:02 2022 +0300	Fix invalid free() during type persistence	commit f24548e21763eea9e8fb80e1c58c388ea52ab086Author: Dmitry Stogov <dmitry@zend.com>Date:   Mon Jul 18 15:11:02 2022 +0300    Fix invalid free() during type persistence        Fixes oss-fuzz #49042
82d3ad64df	4b38779a48	Mon Jul 18 14:20:06 2022 +0300	Fix type inference	commit 82d3ad64df7f2f20285afd9f65cf233bb924a6b0Author: Dmitry Stogov <dmitry@zend.com>Date:   Mon Jul 18 14:20:06 2022 +0300    Fix type inference        Fixes oss-fuzz #48908
bd30eff5de	d830a1f6f0	Mon Jul 18 13:14:15 2022 +0300	Fix type inference for FETCH_DI_UNSET	commit bd30eff5deefdd2bf33fd5d9023c00496edac941Author: Dmitry Stogov <dmitry@zend.com>Date:   Mon Jul 18 13:14:15 2022 +0300    Fix type inference for FETCH_DI_UNSET        Fixes oss-fuzz #48507
fa75bd0785	3d4a55fea1	Mon Jun 20 11:30:07 2022 +0300	Fix incorrect constant propagation for VERIFY_RETURN_TYPE	commit fa75bd078511c80c8be655719c7681fa65798c13Author: Dmitry Stogov <dmitry@zend.com>Date:   Mon Jun 20 11:30:07 2022 +0300    Fix incorrect constant propagation for VERIFY_RETURN_TYPE        This fixes oss-fuzz #48104
229e80c6ef	e330f443c9	Mon Jun 20 10:59:37 2022 +0300	Fix memory leak	commit 229e80c6ef507cc26dbd02f0b392f270e1fb6ebeAuthor: Dmitry Stogov <dmitry@zend.com>Date:   Mon Jun 20 10:59:37 2022 +0300    Fix memory leak        This fixes oss-fuzz #48051
971b07ea60	70e0e1ada6	Tue Jun 14 15:03:50 2022 +0300	JIT: Fix incorrect reference-counting	commit 971b07ea60172a80ee308e91c7a7912eea8a571fAuthor: Dmitry Stogov <dmitry@zend.com>Date:   Tue Jun 14 15:03:50 2022 +0300    JIT: Fix incorrect reference-counting        This fixes oss-fuzz #47937
1cd8074743	0b8e471b3c	Tue Jun 14 13:57:44 2022 +0300	JIT: Fix missing register store	commit 1cd8074743d1a13529cf2dbd72bfb2b0ea0ffe25Author: Dmitry Stogov <dmitry@zend.com>Date:   Tue Jun 14 13:57:44 2022 +0300    JIT: Fix missing register store        This fixes oss-fuzz #48023
0b8e471b3c	445d9502bf	Tue Jun 14 12:44:37 2022 +0300	Fix use after free	commit 0b8e471b3c358271a5316196bf9f370039d965c4Author: Dmitry Stogov <dmitry@zend.com>Date:   Tue Jun 14 12:44:37 2022 +0300    Fix use after free        This fixes oss-fuzz #47997
729be469ae	1b45efb6fb	Tue Jun 14 11:59:35 2022 +0300	Fix type inference	commit 729be469ae1c50251607b8978647f8b510b45b46Author: Dmitry Stogov <dmitry@zend.com>Date:   Tue Jun 14 11:59:35 2022 +0300    Fix type inference        This dixes oss-fuzz #47921
1b45efb6fb	4b8bbfb6db	Tue Jun 14 10:20:45 2022 +0300	Fix type inference	commit 1b45efb6fb9dd37c2c6f2079ba2ab851f12e84e0Author: Dmitry Stogov <dmitry@zend.com>Date:   Tue Jun 14 10:20:45 2022 +0300    Fix type inference        This fixes oss-fuzz #47920
088e5677fb	e864cb61a7	Mon Jun 6 11:35:01 2022 +0300	Fix memory leak	commit 088e5677fbfa41d0c66d756e3076b30c500db126Author: Dmitry Stogov <dmitry@zend.com>Date:   Mon Jun 6 11:35:01 2022 +0300    Fix memory leak        This fixes oss-fuzz #47791
b86c6245cc	98e1291b7e	Mon Jun 6 11:13:53 2022 +0300	Fix type inference	commit b86c6245cc7dd739a526c29748725b59926b17ccAuthor: Dmitry Stogov <dmitry@zend.com>Date:   Mon Jun 6 11:13:53 2022 +0300    Fix type inference        This fixes oss-fuzz #47777
3a8912fb7c	591bd1186f	Mon May 30 11:32:17 2022 +0300	Fix memory leak	commit 3a8912fb7c97ea5a8490037d45224230be10625dAuthor: Dmitry Stogov <dmitry@zend.com>Date:   Mon May 30 11:32:17 2022 +0300    Fix memory leak        This fixes oss-fuzz #47648
f135ed9a8a	45e623da26	Mon May 23 13:33:20 2022 +0300	Fix memory leak	commit f135ed9a8a5da2968be8cf534c21882d274d10fbAuthor: Dmitry Stogov <dmitry@zend.com>Date:   Mon May 23 13:33:20 2022 +0300    Fix memory leak        This fixes oss-fuzz #47527
84ea0aa684	05375602a7	Mon May 16 13:45:31 2022 +0300	Fix memory leak	commit 84ea0aa6840b814f84b241e151472a352616b314Author: Dmitry Stogov <dmitry@zend.com>Date:   Mon May 16 13:45:31 2022 +0300    Fix memory leak        This fixes oss-fuzz #47448
05375602a7	5a39f4c7cc	Mon May 16 12:41:25 2022 +0300	Fix type inference	commit 05375602a756e8ca7220480bdb8cec5b8bdd1f0dAuthor: Dmitry Stogov <dmitry@zend.com>Date:   Mon May 16 12:41:25 2022 +0300    Fix type inference        This fixes oss-fuzz #47422
84c1e99ecf	f1fc58ed8d	Wed May 11 12:39:26 2022 +0300	Fix type inference	commit 84c1e99ecfc8c5e025f07573f033cc60ccae8db3Author: Dmitry Stogov <dmitry@zend.com>Date:   Wed May 11 12:39:26 2022 +0300    Fix type inference        This fizes oss-fuzz #47044
3f1e1b9ddf	23a2030438	Wed May 11 12:09:11 2022 +0300	Fix type inference	commit 3f1e1b9ddfd5f7fe7706347109df14b261cf0855Author: Dmitry Stogov <dmitry@zend.com>Date:   Wed May 11 12:09:11 2022 +0300    Fix type inference        This fixes oss-fuzz #47049
b1b79c74fb	82eea0efc9	Wed May 11 11:43:01 2022 +0300	Fix memory leak	commit b1b79c74fb529bc4faf350ed3f883ae6b8485587Author: Dmitry Stogov <dmitry@zend.com>Date:   Wed May 11 11:43:01 2022 +0300    Fix memory leak        This fixes oss-fuzz #47088
948ef10dd0	1aa5e9392d	Mon Apr 25 13:31:01 2022 +0300	Fix ISSET_ISEMPTY_VAR missoptimization	commit 948ef10dd0f9ad5781f906d8a75f00ac1af059bdAuthor: Dmitry Stogov <dmitry@zend.com>Date:   Mon Apr 25 13:31:01 2022 +0300    Fix ISSET_ISEMPTY_VAR missoptimization        This fixes oss-fuzz #46909
3e78964742	8286de2fd3	Mon Apr 25 12:15:55 2022 +0300	Fix type inference	commit 3e78964742c05f6529615a48f75cbde7f7b3a1e2Author: Dmitry Stogov <dmitry@zend.com>Date:   Mon Apr 25 12:15:55 2022 +0300    Fix type inference        Use MAY_BE_NULL result (insted of empty) for ASSIGN_DIM with invalid arguments    This fixes oss-fuzz #46840
8286de2fd3	a74b865123	Mon Apr 25 11:16:10 2022 +0300	Fix type narrowing warning during type inference of ZEND_FETCH_DIM_W	commit 8286de2fd38215a4743aa9a9790f2bca951aa1bfAuthor: Dmitry Stogov <dmitry@zend.com>Date:   Mon Apr 25 11:16:10 2022 +0300    Fix type narrowing warning during type inference of ZEND_FETCH_DIM_W        Fixes oss-fuzz #45820
c3a30544ad	04e59c916f	Mon Apr 18 11:34:18 2022 +0300	JIT: Fixed incorrect guard	commit c3a30544ada06b2de681991308b2e8212a912689Author: Dmitry Stogov <dmitry@zend.com>Date:   Mon Apr 18 11:34:18 2022 +0300    JIT: Fixed incorrect guard        Fixes oss-fuzz #46704
6ed3b57e67	fbb7393997	Mon Apr 18 10:33:52 2022 +0300	Fix incorrect constant propagation for VERIFY_RETURN_TYPE	commit 6ed3b57e67cd9c6314b8c34efd1cd2314ff81208Author: Dmitry Stogov <dmitry@zend.com>Date:   Mon Apr 18 10:33:52 2022 +0300    Fix incorrect constant propagation for VERIFY_RETURN_TYPE        Fixes oss-fuzz #46616
b08aac0451	1762a87932	Fri Apr 15 22:14:44 2022 +0200	Fix inference for assignment of known object to reference	commit b08aac0451d4f421be3cbfea235ac61613e07196Author: Nikita Popov <nikita.ppv@gmail.com>Date:   Fri Apr 15 22:14:44 2022 +0200    Fix inference for assignment of known object to reference        We cannot retain the ce information in that case, we have to    assume the ce may change indirectly through the reference.        Fixes oss-fuzz #46720.
3aaf2f6f89	5b048dd05c	Mon Apr 11 12:17:05 2022 +0300	JIT: Fix memory lek	commit 3aaf2f6f897d879030e14ac048d6f4f288fe4564Author: Dmitry Stogov <dmitry@zend.com>Date:   Mon Apr 11 12:17:05 2022 +0300    JIT: Fix memory lek        Fixes oss-fuzz #46462
5b048dd05c	9af3759987	Mon Apr 11 11:42:01 2022 +0300	Tracing JIT: Fixed incorrect assumption about stack slot type	commit 5b048dd05cf2fb7922be87cb99805877eb5bd060Author: Dmitry Stogov <dmitry@zend.com>Date:   Mon Apr 11 11:42:01 2022 +0300    Tracing JIT: Fixed incorrect assumption about stack slot type        Fixes oss-fuzz #46404
df0c8aaee9	afd8f84c1a	Mon Apr 4 16:47:47 2022 +0300	JIT: Fix array clobbering by user error handler	commit df0c8aaee99bf7361420bca85db67d3f434bdcccAuthor: Dmitry Stogov <dmitry@zend.com>Date:   Mon Apr 4 16:36:25 2022 +0300    JIT: Fix array clobbering by user error handler        Fixes oss-fuzz #46336
c489e360a6	c0bb238483	Mon Apr 4 16:36:25 2022 +0300	JIT: Fix array clobbering by user error handler	commit c489e360a67e8d523b001be3140195c2e4bc7473Author: Dmitry Stogov <dmitry@zend.com>Date:   Mon Apr 4 16:36:25 2022 +0300    JIT: Fix array clobbering by user error handler        Fixes oss-fuzz #46336
c0bb238483	9cb512ecc1	Mon Apr 4 15:34:02 2022 +0300	Fixed reference counting inference	commit c0bb238483229fd08282a124074a5cef09b52a6cAuthor: Dmitry Stogov <dmitry@zend.com>Date:   Mon Apr 4 15:34:02 2022 +0300    Fixed reference counting inference        Fixes oss-fuzz #46084
0d44bbd212	13649451c2	Mon Apr 4 14:20:45 2022 +0300	JIT: Fixed incorrect code generation	commit 0d44bbd212c34f57fad3429d0ecdf43c8d98d2d9Author: Dmitry Stogov <dmitry@zend.com>Date:   Mon Apr 4 14:20:45 2022 +0300    JIT: Fixed incorrect code generation        Fixes oss-fuzz #46328
14fddd17df	e4c7ffc152	Mon Apr 4 12:03:39 2022 +0300	Fix arsort() crash on recursion	commit 14fddd17df97c6f16faf593b7f224c9891ef27dcAuthor: Dmitry Stogov <dmitry@zend.com>Date:   Mon Apr 4 12:03:39 2022 +0300    Fix arsort() crash on recursion        Fixes oss-fuzz #46315
aa352c2c54	cf83bdd925	Fri Mar 25 16:54:50 2022 +0300	JIT: Fixed memory leak	commit aa352c2c540cfa0ddd3ddb369d4beb4963d3b2b6Author: Dmitry Stogov <dmitry@zend.com>Date:   Fri Mar 25 16:54:50 2022 +0300    JIT: Fixed memory leak        Fixes oss-fuzz #45981
cf83bdd925	e9fc81a2f8	Mon Mar 21 16:08:52 2022 +0300	JIT: Fix register clobbering	commit cf83bdd925bc039ea81a2ccddec6547d51b841dcAuthor: Dmitry Stogov <dmitry@zend.com>Date:   Mon Mar 21 16:08:52 2022 +0300    JIT: Fix register clobbering        Fixes oss-fuzz #45590
e9fc81a2f8	7051dc3372	Mon Mar 21 13:34:46 2022 +0300	JIT: Fix missing type store	commit e9fc81a2f8553a4add48933c7c935912bad9f6fbAuthor: Dmitry Stogov <dmitry@zend.com>Date:   Mon Mar 21 13:34:46 2022 +0300    JIT: Fix missing type store        Fixes oss-fuzz #45604
7051dc3372	3d6a7e2bd5	Mon Mar 21 12:50:30 2022 +0300	JIT: Fix memory leak	commit 7051dc33729503a8814ed3dfe8492cb6ed081594Author: Dmitry Stogov <dmitry@zend.com>Date:   Mon Mar 21 12:50:30 2022 +0300    JIT: Fix memory leak        Fixes oss-fuzz #45658
3d6a7e2bd5	d0417ebc93	Fri Mar 18 18:54:47 2022 +0300	JIT: Fix missing exception handling	commit 3d6a7e2bd5edad4243dd3c1780dcad0ff6004f3eAuthor: Dmitry Stogov <dmitry@zend.com>Date:   Fri Mar 18 18:54:47 2022 +0300    JIT: Fix missing exception handling        Fixes oss-fuzz #45649
2b7431cf5b	e20f955e44	Mon Mar 14 12:57:37 2022 +0300	Fix memory leak	commit 2b7431cf5b2157c71265616c46a455212cf949d5Author: Dmitry Stogov <dmitry@zend.com>Date:   Mon Mar 14 12:57:37 2022 +0300    Fix memory leak        Fixed oss-fuzz #45535
e20f955e44	9792f0db76	Mon Mar 14 11:46:45 2022 +0300	JIT: Fix register allocation	commit e20f955e44bdfef974ea3b3fc3e13abc97403471Author: Dmitry Stogov <dmitry@zend.com>Date:   Mon Mar 14 11:46:45 2022 +0300    JIT: Fix register allocation        Fixes oss-fuzz #45487
9792f0db76	2b2aeb989e	Mon Mar 14 09:48:58 2022 +0300	JIT: Fix type store	commit 9792f0db76c25af41fbde37265d3125996a64e71Author: Dmitry Stogov <dmitry@zend.com>Date:   Mon Mar 14 09:48:58 2022 +0300    JIT: Fix type store        Fixes oss-fuzz #45190
770a544af4	f7608df78d	Fri Mar 11 14:30:27 2022 +0300	Optimizer: Fix inorrect constant substitution in FETCH_LIST_R	commit 770a544af4c0c3dcff115e60b607f8782a7d21d4Author: Dmitry Stogov <dmitry@zend.com>Date:   Fri Mar 11 14:30:27 2022 +0300    Optimizer: Fix inorrect constant substitution in FETCH_LIST_R        Fixes oss-fuzz #45429
151d2ac5ae	7eb972c456	Fri Mar 11 11:32:23 2022 +0300	Fixed memory leak	commit 151d2ac5ae73ebc0fc5613b6f821f433e6f3aac3Author: Dmitry Stogov <dmitry@zend.com>Date:   Fri Mar 11 11:32:23 2022 +0300    Fixed memory leak        Fixes oss-fuzz #45191
c6a53f9499	f16d35cfe9	Fri Mar 11 10:50:31 2022 +0300	Fix non-reentirant startiong or error recording from error handler	commit c6a53f9499ea85758d3b0fad040dbe69929e8af5Author: Dmitry Stogov <dmitry@zend.com>Date:   Fri Mar 11 10:50:31 2022 +0300    Fix non-reentirant startiong or error recording from error handler        Fixes oss-fuzz #45398
01702a851b	70f7e7d83f	Tue Mar 1 01:33:22 2022 +0300	Fix use after free	commit 01702a851b3902ac043d634f8cd7452edb26df1bAuthor: Dmitry Stogov <dmitry@zend.com>Date:   Tue Mar 1 01:33:22 2022 +0300    Fix use after free        Fixes oss-fuzz #44885
bb0b4eb996	aced867a95	Tue Mar 1 00:00:22 2022 +0300	Fix infiniry recursion during serialize() of "tricky" object	commit bb0b4eb996c86b927df86f6bdb1e8ac0749e5333Author: Dmitry Stogov <dmitry@zend.com>Date:   Tue Mar 1 00:00:22 2022 +0300    Fix infiniry recursion during serialize() of "tricky" object        Fixes oss-fuzz #44954
aced867a95	f67986a921	Mon Feb 28 18:25:49 2022 +0300	Fix typr inference	commit aced867a952c189a3968a9ecf3e6ca28facc2153Author: Dmitry Stogov <dmitry@zend.com>Date:   Mon Feb 28 18:25:49 2022 +0300    Fix typr inference        Fixes oss-fuzz #45020
5ca2dd3d16	8e00da3728	Mon Feb 28 16:37:17 2022 +0300	Fixed assertion after clobbering object by user error handler, because of creation dynamic property deprecation warning.	commit 5ca2dd3d16e5d9591040a58313a2c0a0b94b7b36Author: Dmitry Stogov <dmitry@zend.com>Date:   Mon Feb 28 16:37:17 2022 +0300    Fixed assertion after clobbering object by user error handler, because    of creation dynamic property deprecation warning.        Fixes oss-fuzz #44932
70f7e7d83f	ac8a53cab1	Mon Feb 28 15:43:03 2022 +0300	JIT: Fix memory leak	commit 70f7e7d83fe213712a0828ae4872daaed03a2544Author: Dmitry Stogov <dmitry@zend.com>Date:   Mon Feb 28 15:43:03 2022 +0300    JIT: Fix memory leak        Fixes oss-fuzz #44920
ac8a53cab1	0d266a24d6	Mon Feb 28 13:48:53 2022 +0300	JIT: Fix register allocator	commit ac8a53cab1297f8546146f93f3fa7897e396b047Author: Dmitry Stogov <dmitry@zend.com>Date:   Mon Feb 28 13:48:53 2022 +0300    JIT: Fix register allocator        Fixes oss-fuzz #44916
78c7289f69	cd1c6f0b81	Mon Feb 28 11:44:22 2022 +0300	Fixed incorrect DCE for FREE	commit 78c7289f6922dbf109bf2b92c056063e6b3c78deAuthor: Dmitry Stogov <dmitry@zend.com>Date:   Mon Feb 28 11:44:22 2022 +0300    Fixed incorrect DCE for FREE        Fixes oss-fuzz #44863
3198b8787b	84a638a346	Fri Feb 18 17:15:07 2022 +0300	JIT: Fix register allocation	commit 3198b8787bdbe08a893faf1164c48b9bd0f86562Author: Dmitry Stogov <dmitry@zend.com>Date:   Fri Feb 18 17:15:07 2022 +0300    JIT: Fix register allocation        Fixes oss-fuzz #44689
84a638a346	8f5480e7eb	Fri Feb 18 12:20:40 2022 +0300	Fix memory leak	commit 84a638a346f918e1ed6afc23f8ea1b7b7b90df1bAuthor: Dmitry Stogov <dmitry@zend.com>Date:   Fri Feb 18 12:20:40 2022 +0300    Fix memory leak        Fixes oss-fuzz #44685
73fed0f028	a506b0006e	Fri Feb 11 15:16:08 2022 +0300	Fix emory leak	commit 73fed0f0285f0b225f10884d19eb26d3cfbd5084Author: Dmitry Stogov <dmitry@zend.com>Date:   Fri Feb 11 15:16:08 2022 +0300    Fix emory leak        Fixes oss-fuzz #44408
912608d89b	7434909dc6	Fri Feb 11 13:44:49 2022 +0300	JIT: Fixed register clobbering during overflow handling	commit 912608d89bbf9ea1c564052855b8d484aad10319Author: Dmitry Stogov <dmitry@zend.com>Date:   Fri Feb 11 13:44:49 2022 +0300    JIT: Fixed register clobbering during overflow handling        Fixes oss-fuzz #44535
7434909dc6	0d6b173532	Fri Feb 11 13:03:36 2022 +0300	Fix type inference	commit 7434909dc652feca55da7e29db81d1f4cd09b9adAuthor: Dmitry Stogov <dmitry@zend.com>Date:   Fri Feb 11 13:03:36 2022 +0300    Fix type inference        Fixes oss-fuzz #44407
0d6b173532	d0f965d078	Fri Feb 11 12:05:57 2022 +0300	JIT: Fix missed type store	commit 0d6b173532d481fdb90d54685bef72d455352b6aAuthor: Dmitry Stogov <dmitry@zend.com>Date:   Fri Feb 11 12:05:57 2022 +0300    JIT: Fix missed type store        Fizes oss-fuzz #44376
82bb169a08	29fe06fa59	Fri Feb 11 11:08:19 2022 +0300	Tracing JIT: Fixed incorrect deoptimization info	commit 82bb169a083bb592291d8e6bd5e2198c00eac07bAuthor: Dmitry Stogov <dmitry@zend.com>Date:   Fri Feb 11 11:08:19 2022 +0300    Tracing JIT: Fixed incorrect deoptimization info        Fixes oss-fuzz #44294
478448d271	a60a9b4a89	Tue Feb 1 22:00:39 2022 +0300	JIT: Fix register alloction (missed store)	commit 478448d27161ce6fb23ee4fb92add46bd93482f0Author: Dmitry Stogov <dmitry@zend.com>Date:   Tue Feb 1 22:00:39 2022 +0300    JIT: Fix register alloction (missed store)        Fixes oss-fuzz #44242
a60a9b4a89	54c952f11f	Tue Feb 1 16:24:22 2022 +0300	Fix memory leak	commit a60a9b4a89b4fa40f8980a0a35a7088860cb8a4dAuthor: Dmitry Stogov <dmitry@zend.com>Date:   Tue Feb 1 16:24:22 2022 +0300    Fix memory leak        Fixes oss-fuzz #44222
54c952f11f	f711c9603d	Fri Jan 28 16:27:55 2022 +0300	JIT: Fix incorrect type store elimination	commit 54c952f11fbc3e877ddb729b78e9814eb3f79157Author: Dmitry Stogov <dmitry@zend.com>Date:   Fri Jan 28 16:27:55 2022 +0300    JIT: Fix incorrect type store elimination        Fixes oss-fuzz #43737
f711c9603d	965dafe3e1	Fri Jan 28 13:08:11 2022 +0300	Fix incorrect register allocation	commit f711c9603db70ad7be8dace35b4297860a0f6e11Author: Dmitry Stogov <dmitry@zend.com>Date:   Fri Jan 28 13:08:11 2022 +0300    Fix incorrect register allocation        Fixes oss-fuzz #44006
f1ae13509f	2af33234b2	Fri Jan 28 12:38:38 2022 +0300	Fix memory leak	commit f1ae13509f23a639bd47b4035e6bf74c68cef752Author: Dmitry Stogov <dmitry@zend.com>Date:   Fri Jan 28 12:38:38 2022 +0300    Fix memory leak        Fixes oss-fuzz #43988
965dafe3e1	464e725bb5	Fri Jan 28 12:17:46 2022 +0300	Fix too aggressive DCE that leads to memory leak	commit 965dafe3e15667daf0c5837dd92ee2ebcf4899edAuthor: Dmitry Stogov <dmitry@zend.com>Date:   Fri Jan 28 12:17:46 2022 +0300    Fix too aggressive DCE that leads to memory leak        Fixes oss-fuzz #43738
464e725bb5	07aaa34cd4	Fri Jan 28 11:04:51 2022 +0300	Fix typo (wrong string length)	commit 464e725bb5a61e425e1e05015e0db8ca4bf2f3a9Author: Dmitry Stogov <dmitry@zend.com>Date:   Fri Jan 28 11:04:51 2022 +0300    Fix typo (wrong string length)        Fixes oss-fuzz #44110
655e578e81	797e091d06	Fri Jan 14 17:24:23 2022 +0300	JIT: Fix exception handling	commit 655e578e816e6eec767b25963e93d8e044a9f392Author: Dmitry Stogov <dmitry@zend.com>Date:   Fri Jan 14 17:24:23 2022 +0300    JIT: Fix exception handling        Fixes oss-fuzz #43618
ee8f9d75c0	079c5af9ec	Fri Jan 14 16:43:50 2022 +0300	JIT: Fix trace type inference	commit ee8f9d75c0ced8bdbcae01dd98654d13e29ae8c0Author: Dmitry Stogov <dmitry@zend.com>Date:   Fri Jan 14 16:43:50 2022 +0300    JIT: Fix trace type inference        Fixes oss-fuzz #43597
079c5af9ec	f7c3f6e7e2	Fri Jan 14 13:41:16 2022 +0300	JIT: Fix register allocation	commit 079c5af9ec516e0e60c6209135b127e3e1a86c64Author: Dmitry Stogov <dmitry@zend.com>Date:   Fri Jan 14 13:41:16 2022 +0300    JIT: Fix register allocation        Fixes oss-fuzz #43598
78974a4776	3b6d385794	Thu Jan 13 11:44:25 2022 +0100	JIT: Fix incorrect flag check	commit 78974a4776a25425d836a8e842b8519b14d4127bAuthor: Dmitry Stogov <dmitry@zend.com>Date:   Tue Jan 11 22:23:44 2022 +0300    JIT: Fix incorrect flag check        Fixes oss-fuzz #43538
522406c0ec	d8b0337cff	Tue Jan 11 22:23:44 2022 +0300	JIT: Fix incorrect flag check	commit 522406c0ec8d35f12683acfb3f4ee8d5b6ea6f13Author: Dmitry Stogov <dmitry@zend.com>Date:   Tue Jan 11 22:23:44 2022 +0300    JIT: Fix incorrect flag check        Fixes oss-fuzz #43538
d8b0337cff	d7db5f6e21	Tue Jan 11 13:02:55 2022 +0300	Fix register allocation on x86	commit d8b0337cff18d4a7e6ec288dd470efa2e720ecf8Author: Dmitry Stogov <dmitry@zend.com>Date:   Tue Jan 11 13:02:55 2022 +0300    Fix register allocation on x86        Fixes oss-fuzz #43119
1f58365438	698ac23711	Mon Jan 10 21:53:35 2022 +0300	Fix type inference	commit 1f58365438ca10662fff1a27298969cf29d2688cAuthor: Dmitry Stogov <dmitry@zend.com>Date:   Mon Jan 10 21:53:35 2022 +0300    Fix type inference        Fixes oss-fuzz #43367
698ac23711	71d6501346	Mon Jan 10 19:39:19 2022 +0300	Fixed NAN handling in SCCP	commit 698ac23711503cb3a2c0ae1965447598597ac468Author: Dmitry Stogov <dmitry@zend.com>Date:   Mon Jan 10 19:39:19 2022 +0300    Fixed NAN handling in SCCP        Fixes oss-fuzz #43341
c958ab121b	8a5c68181c	Mon Jan 10 17:27:00 2022 +0300	JIT: Fix array separation after capturing by user error handler	commit c958ab121b087adb49e6db992fa8a97755ac6e22Author: Dmitry Stogov <dmitry@zend.com>Date:   Mon Jan 10 17:27:00 2022 +0300    JIT: Fix array separation after capturing by user error handler        Fixes oss-fuzz #43288
b80d30d821	4170d41a66	Mon Jan 10 16:03:54 2022 +0300	Fix type inference for assign to string offset with invalid index.	commit b80d30d821e64de96c36d24e7e931028678750deAuthor: Dmitry Stogov <dmitry@zend.com>Date:   Mon Jan 10 16:03:54 2022 +0300    Fix type inference for assign to string offset with invalid index.        Fixes oss-fuzz #43277
4170d41a66	2f6a06ccb0	Mon Jan 10 15:37:36 2022 +0300	JIT: Fix incorrect FETCH_THIS elimination	commit 4170d41a66d913b672e7f76d528aea2fe15d21deAuthor: Dmitry Stogov <dmitry@zend.com>Date:   Mon Jan 10 15:37:36 2022 +0300    JIT: Fix incorrect FETCH_THIS elimination        Fizex oss-fuzz #43159
fd879e6fe4	cb3d858745	Tue Dec 28 16:51:03 2021 +0300	JIT: Fix array clobbering by user error handler	commit fd879e6fe47c5d83e9f2e9fd2f72e6b1b548a02aAuthor: Dmitry Stogov <dmitry@zend.com>Date:   Tue Dec 28 16:51:03 2021 +0300    JIT: Fix array clobbering by user error handler        Gixes oss-fuzz #43055
de358f856f	87d9e02f01	Tue Dec 28 09:57:03 2021 +0300	Fix reference contig inference	commit de358f856fea56ad2b7ff79f3f7daa91ee99b32aAuthor: Dmitry Stogov <dmitry@zend.com>Date:   Tue Dec 28 09:57:03 2021 +0300    Fix reference contig inference        Fixes oss-fuzz #43032
2b81156f2a	3f0bb67361	Fri Dec 24 13:10:22 2021 +0300	Fix memory leak in SCCP	commit 2b81156f2a64ae99a4d431983e7c5a4ec7b817f7Author: Dmitry Stogov <dmitry@zend.com>Date:   Fri Dec 24 13:10:22 2021 +0300    Fix memory leak in SCCP        Fixes oss-fuzz #42878
6d5922bed5	e004e844f7	Mon Dec 20 23:52:46 2021 +0300	JIT: Fix incorrect JIT prologur size for CLANG/x86 build	commit 6d5922bed5930b3ed453e9364c16ccd33ff45a86Author: Dmitry Stogov <dmitry@zend.com>Date:   Mon Dec 20 23:52:46 2021 +0300    JIT: Fix incorrect JIT prologur size for CLANG/x86 build        Fixes oss-fuzz #42724
e004e844f7	7c674e1aa7	Mon Dec 20 15:06:32 2021 +0300	Fix incorrect optimization of ASSIGN_OP that may lead to memory leak	commit e004e844f74998878853517d900f99dbc1e9db3dAuthor: Dmitry Stogov <dmitry@zend.com>Date:   Mon Dec 20 15:06:32 2021 +0300    Fix incorrect optimization of ASSIGN_OP that may lead to memory leak        Fixes oss-fuzz #42506
7c674e1aa7	f18bb2477f	Mon Dec 20 12:48:48 2021 +0300	JIT: Fix register clobbering	commit 7c674e1aa7d688086aace0cc3e5bb7635b595417Author: Dmitry Stogov <dmitry@zend.com>Date:   Mon Dec 20 12:48:48 2021 +0300    JIT: Fix register clobbering        Fixes oss-fuzz #42657
f18bb2477f	1481d66343	Mon Dec 20 11:40:11 2021 +0300	Fix type inference for INIT_ARRAY with invalid index	commit f18bb2477fba864d20d2c3b7422e5b9ce88f1f79Author: Dmitry Stogov <dmitry@zend.com>Date:   Mon Dec 20 11:40:11 2021 +0300    Fix type inference for INIT_ARRAY with invalid index        Fixes oss-fuzz #42568
2745cd9997	88cb659f1f	Fri Dec 17 12:49:58 2021 +0300	Fix array clobbering by user error handler	commit 2745cd99973a5b422c66d62b9d9229da22e82a34Author: Dmitry Stogov <dmitry@zend.com>Date:   Fri Dec 17 12:49:58 2021 +0300    Fix array clobbering by user error handler        Fixes oss-fuzz #42503
66306030ad	49380b59d2	Fri Dec 17 12:31:48 2021 +0300	JIT: Fix incorrect type store elimination	commit 66306030ad26da49bbc6c07624fa3b4b1f1d9757Author: Dmitry Stogov <dmitry@zend.com>Date:   Fri Dec 17 12:31:48 2021 +0300    JIT: Fix incorrect type store elimination        Fixes oss-fuzz #42388
75b2973974	b16fc350a4	Wed Dec 15 12:20:37 2021 +0300	Fix array clobbering by user error handler	commit 75b2973974414fb52a19c0466c8f2afc2081eb49Author: Dmitry Stogov <dmitry@zend.com>Date:   Wed Dec 15 12:20:37 2021 +0300    Fix array clobbering by user error handler        Fixes oss-fuzz #42363
fe320e83ae	cbc0b1afeb	Mon Dec 13 16:28:45 2021 +0300	Tracing JIT: Fix reference counting	commit fe320e83aee316de07305f7808bdb158ba8b3feaAuthor: Dmitry Stogov <dmitry@zend.com>Date:   Mon Dec 13 16:28:45 2021 +0300    Tracing JIT: Fix reference counting        Fixes oss-fuzz #42225
cbc0b1afeb	230de7721f	Mon Dec 13 14:59:30 2021 +0300	Fix array clobering by user error handler	commit cbc0b1afeb97044f7a813e8678736649c15f3974Author: Dmitry Stogov <dmitry@zend.com>Date:   Mon Dec 13 14:59:30 2021 +0300    Fix array clobering by user error handler        Fixes oss-fuzz #42234
230de7721f	e79dbe1124	Mon Dec 13 13:08:05 2021 +0300	Fix incorrect optimization that leads to memory leak	commit 230de7721f17ca0aeb85d819f1d4001a6be56d22Author: Dmitry Stogov <dmitry@zend.com>Date:   Mon Dec 13 13:08:05 2021 +0300    Fix incorrect optimization that leads to memory leak        Fixes oss-fuzz #42221
e79dbe1124	c435e67746	Mon Dec 13 11:49:51 2021 +0300	JIT: Fix crash during compilation of function with incompletely constructed SSA	commit e79dbe1124bc5e556ab87ce6a4bfa3826108a2faAuthor: Dmitry Stogov <dmitry@zend.com>Date:   Mon Dec 13 11:49:51 2021 +0300    JIT: Fix crash during compilation of function with incompletely constructed SSA        Fixes oss-fuzz #42200
0ac3d78d7d	efb901ebed	Fri Dec 10 01:39:28 2021 +0300	Fix incorrect JMP optimization	commit 0ac3d78d7d05e254680f58d072e36b3b6779ee78Author: Dmitry Stogov <dmitry@zend.com>Date:   Fri Dec 10 01:39:28 2021 +0300    Fix incorrect JMP optimization        Fixes oss-fuzz #42155
7e080183f4	7d4fdf1510	Thu Dec 9 18:15:47 2021 +0300	Fix crush after compilation of nullsafe operator introduced in 307e476e86e19135976ba7e686558de68dbb9b29	commit 7e080183f48b8da54038ecaedd1534cd49cf56b0Author: Dmitry Stogov <dmitry@zend.com>Date:   Thu Dec 9 18:15:47 2021 +0300    Fix crush after compilation of nullsafe operator introduced in 307e476e86e19135976ba7e686558de68dbb9b29        Now we flush only delayed opcodes realted to this nullsafe operator.        Fixes oss-fuzz #42152
7b629afe4e	c29f6baaee	Mon Dec 6 15:59:30 2021 +0300	Fixed incorrect DCE of a constructor call	commit 7b629afe4e9411c8fb5a68a2641d33027a9784e6Author: Dmitry Stogov <dmitry@zend.com>Date:   Mon Dec 6 15:59:30 2021 +0300    Fixed incorrect DCE of a constructor call        Fixez oss-fuzz #42049
c29f6baaee	aa7280264e	Mon Dec 6 14:22:07 2021 +0300	JIT: Fix incorrect elimination of type store	commit c29f6baaee5e4d1bc826a7c1414f912b21c3e8f8Author: Dmitry Stogov <dmitry@zend.com>Date:   Mon Dec 6 14:22:07 2021 +0300    JIT: Fix incorrect elimination of type store        Fixes oss-fuzz #41995
5459ed4c2f	4ed10f3d47	Mon Dec 6 13:08:27 2021 +0300	Fix use after free because of data clobbering by user error handler	commit 5459ed4c2fbc25560da3808e823c0503704a8f31Author: Dmitry Stogov <dmitry@zend.com>Date:   Mon Dec 6 13:08:27 2021 +0300    Fix use after free because of data clobbering by user error handler        Fixes oss-fuzz #41692
aa7280264e	1f38c003d2	Mon Dec 6 11:30:03 2021 +0300	Fix refcount inferemce ($a += $a returns old array with RCN)	commit aa7280264e9b42a287cf38c68a019ca516db01ddAuthor: Dmitry Stogov <dmitry@zend.com>Date:   Mon Dec 6 11:30:03 2021 +0300    Fix refcount inferemce ($a += $a returns old array with RCN)        Fixes oss-fuzz #41670
307e476e86	929d847152	Sat Dec 4 18:04:24 2021 +0300	Fixed bug #81216 (Nullsafe operator leaks dynamic property name)	commit 307e476e86e19135976ba7e686558de68dbb9b29Author: Dmitry Stogov <dmitry@zend.com>Date:   Sat Dec 4 18:04:24 2021 +0300    Fixed bug #81216 (Nullsafe operator leaks dynamic property name)        Fixes oss-fuzz #38542
2515e788bc	c4ee66856e	Fri Dec 3 11:13:50 2021 +0300	JIT: Fix register clobbering	commit 2515e788bc970af5afbecbfd90eb4211acada6d3Author: Dmitry Stogov <dmitry@zend.com>Date:   Fri Dec 3 11:13:50 2021 +0300    JIT: Fix register clobbering        Fixes oss-fuzz #41621
2fde308fc6	94286cd596	Thu Dec 2 22:19:48 2021 +0300	JIT: Fix ASSIGN_DIM_OP with undefined variable and index and user error handler, throwing an exception	commit 2fde308fc6b3b897c451d17b22a78612cd040422Author: Dmitry Stogov <dmitry@zend.com>Date:   Thu Dec 2 22:19:48 2021 +0300    JIT: Fix ASSIGN_DIM_OP with undefined variable and index and user error handler, throwing an exception        Fixes oss-fuzz #39422
09547c64c2	9f6ab78610	Thu Dec 2 00:24:05 2021 +0300	Fix clobering of operand by error handler in assignment to string offset	commit 09547c64c28f81957d986b9c6b995b28d1098db6Author: Dmitry Stogov <dmitry@zend.com>Date:   Thu Dec 2 00:24:05 2021 +0300    Fix clobering of operand by error handler in assignment to string offset        In some cases new code requires two reallocations insead of one.        Fixes oss-fuzz #31716, #36196, #39739 and #40002
c3766c08f4	b594a95a2f	Wed Dec 1 18:03:08 2021 +0300	Fix SCDF cleanup of unused basic block, kept only because of FREE of a loop var	commit c3766c08f415bf4acc015c2c7fd3ed6969f15f08Author: Dmitry Stogov <dmitry@zend.com>Date:   Wed Dec 1 18:03:08 2021 +0300    Fix SCDF cleanup of unused basic block, kept only because of FREE of a loop var        Fixes oss-fuzz #41516
b594a95a2f	2fb7b6e3e9	Tue Nov 30 23:33:34 2021 +0300	Fixed crash in ZEND_ASSIGN_DIM_OP because of array cloberring by user error handler	commit b594a95a2f692b86aa06da46f79e6674cf402b0cAuthor: Dmitry Stogov <dmitry@zend.com>Date:   Tue Nov 30 23:33:34 2021 +0300    Fixed crash in ZEND_ASSIGN_DIM_OP because of array cloberring by user error handler        Fixes oss-fuzz #36214
e7b31f57ec	df434f056f	Tue Nov 30 20:36:52 2021 +0300	JIT: Fix incorrect code produced for BOOL_NOT and [double, undef] operand	commit e7b31f57ec56a9e1fda834e54266def7bcdaf5c0Author: Dmitry Stogov <dmitry@zend.com>Date:   Tue Nov 30 20:36:52 2021 +0300    JIT: Fix incorrect code produced for BOOL_NOT and [double, undef] operand        Fixes oss-fuzz #41531
df434f056f	c1036194d6	Tue Nov 30 16:07:38 2021 +0300	Fix crash after indirect modification of string by user error handler	commit df434f056f187e63c0c59d61403b05d2bf387d4cAuthor: Dmitry Stogov <dmitry@zend.com>Date:   Tue Nov 30 16:07:38 2021 +0300    Fix crash after indirect modification of string by user error handler        Fixes oss-fuzz #39346
c1036194d6	6e1fe96962	Tue Nov 30 12:58:54 2021 +0300	JIT: Fix incorrect reference counting inference	commit c1036194d6fad51c129b45cf3f85bf0bbbef5670Author: Dmitry Stogov <dmitry@zend.com>Date:   Tue Nov 30 12:58:54 2021 +0300    JIT: Fix incorrect reference counting inference        Fixes oss-fuzz #40747
6e1fe96962	86430e8e01	Tue Nov 30 11:40:18 2021 +0300	JIT: Fix uninitialized result of ASSIGN_DIM[_OP] after clobbering array by user error handler	commit 6e1fe969623809b113c1d9c1be69bb14087a2c28Author: Dmitry Stogov <dmitry@zend.com>Date:   Tue Nov 30 11:40:18 2021 +0300    JIT: Fix uninitialized result of ASSIGN_DIM[_OP] after clobbering array by user error handler        Fixes oss-fuzz #41208
aff115547f	816aa20391	Mon Nov 29 21:44:00 2021 +0300	JIT: Fix exception handling when next array element is already occupied	commit aff115547ff7b261cf258763ba28b6fe8ce95c18Author: Dmitry Stogov <dmitry@zend.com>Date:   Mon Nov 29 21:44:00 2021 +0300    JIT: Fix exception handling when next array element is already occupied        Fixes oss-fuzz #41408
d955415114	8f4cfe04eb	Mon Nov 29 18:39:50 2021 +0300	JIT: Fix named arguments handling	commit d95541511416f4b8b1818b4aefd90ba5dfb04f02Author: Dmitry Stogov <dmitry@zend.com>Date:   Mon Nov 29 18:39:50 2021 +0300    JIT: Fix named arguments handling        Fixes oss-fuzz #41486
8f4cfe04eb	f3bd24a200	Mon Nov 29 18:37:49 2021 +0300	JIT: Fix named arguments handling	commit 8f4cfe04eb4f16db0dcd180ebb8bae2e081ef40dAuthor: Dmitry Stogov <dmitry@zend.com>Date:   Mon Nov 29 18:37:49 2021 +0300    JIT: Fix named arguments handling        Fixes oss-fuzz #41486
49f44e7ffc	179030d167	Thu Nov 25 22:21:44 2021 +0300	JIT: Fixed use-after-free caused by shift by negative number	commit 49f44e7ffc1864b915762cded7800cbfca3b92d6Author: Dmitry Stogov <dmitry@zend.com>Date:   Thu Nov 25 22:21:44 2021 +0300    JIT: Fixed use-after-free caused by shift by negative number        Fixes oss-fuzz #41192
f9518c3850	3c53a9fd73	Thu Nov 25 15:14:04 2021 +0300	Fixed incorrect narrowing to double	commit f9518c3850982aca41fac22b87a1e11096eb1643Author: Dmitry Stogov <dmitry@zend.com>Date:   Thu Nov 25 15:14:04 2021 +0300    Fixed incorrect narrowing to double        Fixes oss-fuzz #41223
3c53a9fd73	f302430c72	Thu Nov 25 13:51:56 2021 +0300	Fixed incorrect refcountion inference for BW_NOT	commit 3c53a9fd736df3ba39e95b402a73edb5bc2cdd85Author: Dmitry Stogov <dmitry@zend.com>Date:   Thu Nov 25 13:51:56 2021 +0300    Fixed incorrect refcountion inference for BW_NOT        BW_NOT for emtpy string returns empty string        Fixes oss-fuzz #41280
f302430c72	f6621037a0	Thu Nov 25 13:33:26 2021 +0300	Fixed incorrect DCE for ADD_ARRAY_ELEMENT instruction	commit f302430c721c8f8004ef97c9c051b2327ed069f4Author: Dmitry Stogov <dmitry@zend.com>Date:   Thu Nov 25 13:33:26 2021 +0300    Fixed incorrect DCE for ADD_ARRAY_ELEMENT instruction        DCE might remove INIT_ARRAY instruction but then keep the related    ADD_ARRAY_ELEMENT, becuse its both operands need to be freed.        Fixes oss-fuzz #41309
f8ec5a1d4c	1a2fb90bf4	Mon Nov 1 12:31:34 2021 +0100	Fix range inference hang	commit f8ec5a1d4c002a6bdfcec6b2582f66d58d32003cAuthor: Nikita Popov <nikita.ppv@gmail.com>Date:   Mon Nov 1 12:29:48 2021 +0100    Fix range inference hang        We shouldn't switch from range to no range for ZEND_DIV and instead    explicitly return an overflowing range. Otherwise the range will    not actually get updated during widening, and we'll perform    essentially infinite narrowing.        Fixes oss-fuzz #40566.
1a2fb90bf4	91dfac6f2a	Mon Nov 1 11:44:32 2021 +0100	Fix finally exception chaining on recursion	commit 1a2fb90bf459f2ab918e02dff63c803f24a354a9Author: Nikita Popov <nikita.ppv@gmail.com>Date:   Mon Nov 1 11:42:36 2021 +0100    Fix finally exception chaining on recursion        In this case zend_exception_set_previous() would destroy the    fast_call exception and further accesses on ex would be invalid.    We should only update ex if we update EG(exception).        Fixes oss-fuzz #40464.
64878757be	55aadc647b	Mon Nov 1 11:03:17 2021 +0100	Fix scdf loop var free check for phi vars	commit 64878757be97a6938b4cd7f3e0a0937f5f73e48eAuthor: Nikita Popov <nikita.ppv@gmail.com>Date:   Mon Nov 1 11:01:29 2021 +0100    Fix scdf loop var free check for phi vars        The variable may come from a phi node, in which case we should    take the defining block from it.        Fixes oss-fuzz #40453.
55aadc647b	a4ed17167c	Mon Nov 1 09:50:22 2021 +0100	Fix self-assign evaluation order for ASSIGN_DIM_OP	commit 55aadc647bbded429b5a54835619b8038f6f909eAuthor: Nikita Popov <nikita.ppv@gmail.com>Date:   Mon Nov 1 09:36:22 2021 +0100    Fix self-assign evaluation order for ASSIGN_DIM_OP        For $ary[idx] op= $ary we should evaluate the RHS operand first,    otherwise we may create a reference-free recursive array. Use the    same handling we do for the normal $ary[idx] = $ary case.        Fixes oss-fuzz #40287.
22b6aac66f	0acfd2d7b5	Tue Oct 19 14:19:22 2021 +0200	Fix inc/dec of undef var with error handler	commit 22b6aac66fbb64dd479b4a34ac3a7af7a40adad9Author: Nikita Popov <nikita.ppv@gmail.com>Date:   Tue Oct 19 13:12:37 2021 +0200    Fix inc/dec of undef var with error handler        Set the variable to null after emitting the undef var notice    rather than before. This avoids an assertion failure if the var    is unset by the error handler.        The flip side is that this may cause a leak instead, but that's    the more harmless outcome.        Fixes oss-fuzz #36604.
8653174539	9ab3bc69e8	Tue Oct 19 11:40:19 2021 +0200	Fix nested WeakMap destruction	commit 8653174539b079063ecf65e964da09cad06e77f8Author: Nikita Popov <nikita.ppv@gmail.com>Date:   Tue Oct 19 11:40:19 2021 +0200    Fix nested WeakMap destruction        This undoes the change from a4b209fdcfe799ab97f55c4c9d22d889813fc266    and addresses the original problem by dropping the unrefs during    shutdown. All objects should get unref'ed without that, and this    code path should only get hit for dangling references due to    bailout.        Alternatively we'd have to relax some assertions that check that the    object is part of the weakrefs table, which seems worse.        Fixes oss-fuzz #40090.
fabcc9a350	bbe21365b4	Mon Oct 11 12:19:29 2021 +0200	Fix long-term shutdown/tick fci/fcc storage	commit fabcc9a350087c652252f63b1d3744516e34d57eAuthor: Nikita Popov <nikita.ppv@gmail.com>Date:   Mon Oct 11 12:17:44 2021 +0200    Fix long-term shutdown/tick fci/fcc storage        Normally incrementing the refcount on just function_name is    sufficient. However, if the callable is of the form 'X::y' inside    an instance method, this will capture $this in fcc.object, which    also needs to be retained.        The fci_addref/fci_release helpers should likely be exported as    a general API, as we may have this problem in other places as    well.        Fixes oss-fuzz #39778.
3661c1932c	f455894bb6	Wed Oct 6 10:50:44 2021 +0200	Fix array cast type inference wrt packed arrays	commit 3661c1932c3c04f29331f4892d0e60c7b7ba612fAuthor: Nikita Popov <nikita.ppv@gmail.com>Date:   Wed Oct 6 10:48:14 2021 +0200    Fix array cast type inference wrt packed arrays        Use KEY_LONG instead of PACKED if it's possible for the array to    be empty. It won't be packed in that case.        Fixes oss-fuzz #39650.
bbd3f714d7	cdcdb33080	Tue Oct 5 11:28:16 2021 +0200	Fix COPY_TMP live range construction after optimization	commit bbd3f714d7a39b11b876ffca0b37520abadbef89Author: Nikita Popov <nikita.ppv@gmail.com>Date:   Tue Oct 5 11:26:32 2021 +0200    Fix COPY_TMP live range construction after optimization        If we optimize the FREE away, we should switch to constructing    a normal live range, rather than a split live range.        Fixes oss-fuzz #39548.
944d653b3d	9346da8964	Wed Sep 29 11:09:04 2021 +0200	Fix inference for INIT_ARRAY with illegal offset type	commit 944d653b3deed174f3c5f8f71db34e55b64aee62Author: Nikita Popov <nikita.ppv@gmail.com>Date:   Wed Sep 29 11:06:42 2021 +0200    Fix inference for INIT_ARRAY with illegal offset type        Extract assign_dim_array_result_type() helper that can be reused    for INIT_ARRAY and implements all this logic correctly.        Fixes oss-fuzz 5156868775870464.
97b5eeeb6c	2f798d99b7	Tue Sep 28 16:33:11 2021 +0200	Fix leak with ASSIGN_OBJ on null	commit 97b5eeeb6c04c7637bef5d32a1b08dd409f16570Author: Nikita Popov <nikita.ppv@gmail.com>Date:   Tue Sep 28 16:28:34 2021 +0200    Fix leak with ASSIGN_OBJ on null        We still need to free op1 in this case.        Fixes oss-fuzz 5782176231194624 (part of #38542).
2f798d99b7	6154aa652d	Tue Sep 28 15:57:55 2021 +0200	Fix leak of invalid stream_read() return value	commit 2f798d99b74933c25aee8509dd44fdc8a8697f05Author: Nikita Popov <nikita.ppv@gmail.com>Date:   Tue Sep 28 15:55:24 2021 +0200    Fix leak of invalid stream_read() return value        Fixes oss-fuzz 6225190686687232 (part of #38542).
17d6efc729	2e02b1f157	Tue Sep 28 10:37:54 2021 +0200	Fix block marking for two arm math	commit 17d6efc729e0a973bb4e8f4e19a9d099a8c13b54Author: Nikita Popov <nikita.ppv@gmail.com>Date:   Tue Sep 28 10:35:54 2021 +0200    Fix block marking for two arm math        This would end up taking the successors_count=2 case, even though    we need to treat SWITCH and MATCH differently. This incorrectly    marked a block as FOLLOW, resulting in incorrect block pass    optimization.        Fixes oss-fuzz #39380.
7d483418e2	823888c472	Mon Sep 27 16:18:40 2021 +0200	Fix relative offsets when copying JMPZNZ	commit 7d483418e21b8c250f03cbef6480e34e428e6f53Author: Nikita Popov <nikita.ppv@gmail.com>Date:   Mon Sep 27 16:13:33 2021 +0200    Fix relative offsets when copying JMPZNZ        This was doing a plain copy of JMPZNZ, even though it encodes    offsets relative to the opline. As such, the offsets would be    relative to target, while they should be relative to opline.    Fix this by recomputing them.        Fixes oss-fuzz #39295.
ddf8910237	038bc27787	Mon Sep 27 11:26:31 2021 +0200	Fix DCE of unreachable phi in cycle	commit ddf89102377a0603d76936a9b0d5a6dafd5bc229Author: Nikita Popov <nikita.ppv@gmail.com>Date:   Mon Sep 27 11:24:52 2021 +0200    Fix DCE of unreachable phi in cycle        We can't remove a trivial phi of the form x = phi(x), because we    don't have a replacement value. We could drop the whole block    though. SCCP would normally do this, but in this particular case    we only determine non-reachability based on type information.        Fixes oss-fuzz #39316.
4fcf0db649	fdc6082902	Fri Aug 27 11:34:22 2021 +0200	Fix use after free when rebinding __call closure	commit 4fcf0db649835339837a502589732e11f0ce6b57Author: Nikita Popov <nikita.ppv@gmail.com>Date:   Fri Aug 27 11:34:22 2021 +0200    Fix use after free when rebinding __call closure        We would end up freeing the function name twice here, once for    the original closure, and once for the rebound one.        Rather than further special casing the zend_closure_call_magic    case, always addref the function_name for internal functions,    the same we do for userland functions. To compensate, we need to    release the original function name when creating from callable    or call frame.        Fixes oss-fuzz #37695.
b964d007e3	07984435ae	Thu Aug 26 12:00:37 2021 +0200	Fix AST print of first class callable in anon class expr	commit b964d007e383516408c64fc533ed791a13034030Author: Nikita Popov <nikita.ppv@gmail.com>Date:   Thu Aug 26 11:58:31 2021 +0200    Fix AST print of first class callable in anon class expr        This will cause a compile error later, but the expression is    printed first.        Fixes oss-fuzz #37473.
6d5ae6496c	70872dde94	Tue Aug 3 10:25:24 2021 +0200	Fix ASSIGN_DIM to NEXT with rc=1 reference value	commit 6d5ae6496c6d1b7a563a0b189d868dd7089be395Author: Nikita Popov <nikita.ppv@gmail.com>Date:   Tue Aug 3 10:19:23 2021 +0200    Fix ASSIGN_DIM to NEXT with rc=1 reference value        The reference wrapper was destroyed while value still pointed into    it and was later used to assign the ASSIGN_DIM return value. This    could be fixed either by moving the return value assignment earlier,    or by working with the value that has been stored in the array.    I'm going with the latter here, because that matches what the    non-NEXT codepath does via assign_to_variable more closely.        Fixes oss-fuzz #36807.
b6dcab2cbb	e120d5269a	Mon Jul 19 12:08:03 2021 +0200	Fix assert with attribute + first-class callable in assert	commit b6dcab2cbb82fb775180d331462641f2e675bd02Author: Nikita Popov <nikita.ppv@gmail.com>Date:   Mon Jul 19 12:08:03 2021 +0200    Fix assert with attribute + first-class callable in assert        This is going to result in a compile-time error, but AST printing    is invoked first and should handle it gracefully. Handle it by    falling back to more generic printing code.        Fixes oss-fuzz #36264.
5f8ed7765a	0192fd20cc	Mon Jul 12 11:30:20 2021 +0200	Fix GC of object properties HT	commit 5f8ed7765ab2a0ec372fce90701c51ce75312541Author: Nikita Popov <nikita.ppv@gmail.com>Date:   Mon Jul 12 11:24:51 2021 +0200    Fix GC of object properties HT        We partially fixed this in bug #78379, but still don't handle    the case where the properties array is marked as grey first,    which causes a delref to not be performed later.        Fix this by treating the object properties HT the same way as    other refcounted values, including addrefs/delrefs. The object    dtor code already handles properties HT with NULL GC type, so    out of order destruction should not be a problem.        Fixes oss-fuzz #36023.
58699ffcf1	62ecf54f35	Thu Jul 8 10:12:40 2021 +0200	Fix constant update for shadowed private property	commit 58699ffcf137154ddd339a0c805996dd8ce80522Author: Nikita Popov <nikita.ppv@gmail.com>Date:   Thu Jul 8 10:04:23 2021 +0200    Fix constant update for shadowed private property        Updating based on the properties info HT will miss private parent    properties that have been shadowed in the child class. Instead,    perform updating directly on the default properties table.        We can't do the same for static properties, because those don't    have a convenient way to look up the property type from the    property offset. However, I don't believe the problem exists for    static properties, because we're always going to be using the    property on the class it was declared on, while children only hold    INDIRECT references. As such, this should be covered by parent    class const updating.        Fixes oss-fuzz #35906.
62ecf54f35	52a00fe776	Wed Jul 7 09:38:30 2021 +0200	Fix use after free on compound division by zero	commit 62ecf54f35e227d09d19ec40920f7bb8d29e9356Author: Nikita Popov <nikita.ppv@gmail.com>Date:   Wed Jul 7 09:36:30 2021 +0200    Fix use after free on compound division by zero        We can't destroy the result operand early, because the division    might fail, in which case we need to preserve the original value.    Place the division result in a temporary zval, and only copy it    on success.        Fixes oss-fuzz #35876.
96bf925cde	bdc60fa7da	Fri Jul 2 11:15:31 2021 +0200	Fix return value of wrong fucntion by-ref assign	commit 96bf925cde2af891e9fca761ffecbfebef6a0d30Author: Nikita Popov <nikita.ppv@gmail.com>Date:   Fri Jul 2 11:15:31 2021 +0200    Fix return value of wrong fucntion by-ref assign        We should be using the result of zend_assign_to_variable() here,    which will deref prior to potential freeing.        Fixes oss-fuzz #29899.
8bb81226c1	d05da0f06c	Mon Apr 19 10:20:30 2021 +0200	Handle debug_print_backtrace() from main script	commit 8bb81226c167e0c90a1f87357e9abd32c05076c8Author: Nikita Popov <nikita.ppv@gmail.com>Date:   Mon Apr 19 10:20:30 2021 +0200    Handle debug_print_backtrace() from main script        If there is nothing to print, the smart_str will hold a nullptr.        Fixes oss-fuzz #33334.
f40c8fdf67	a3e6735999	Thu Apr 15 12:32:05 2021 +0200	Fix return-by-ref from array_reduce callback	commit f40c8fdf672923fd585023574e954b79b85b8777Author: Nikita Popov <nikita.ppv@gmail.com>Date:   Thu Apr 15 12:32:05 2021 +0200    Fix return-by-ref from array_reduce callback        Fixes oss-fuzz #32990.
5fd2a5b13b	89c61186ff	Fri Mar 19 16:04:47 2021 +0100	Fix handling of unknown class in trait precedence list	commit 5fd2a5b13b6e0bb5261f1032056856c09649c5faAuthor: Nikita Popov <nikita.ppv@gmail.com>Date:   Fri Mar 19 16:04:16 2021 +0100    Fix handling of unknown class in trait precedence list        Fixes oss-fuzz #31983.
ab98944195	ed4f90f0c7	Mon Feb 22 10:32:59 2021 +0100	Fix trampoline leak on dynamic static call of non-static method	commit ab989441957956522c1663f1a0662067afbfdb6cAuthor: Nikita Popov <nikita.ppv@gmail.com>Date:   Mon Feb 22 10:32:28 2021 +0100    Fix trampoline leak on dynamic static call of non-static method        Fixes oss-fuzz #30317.
f37fe68e63	59590663d7	Sat Feb 20 11:16:37 2021 +0100	Fix closure GC handler for fake closures	commit f37fe68e6300e6a347dffecf8d7788da0ab0a02dAuthor: Nikita Popov <nikita.ppv@gmail.com>Date:   Sat Feb 20 11:16:37 2021 +0100    Fix closure GC handler for fake closures        Fixes oss-fuzz #31135.
7b7d99839c	3646604203	Mon Feb 15 14:58:38 2021 +0100	Fix symtable cache being used while cleaning symtable	commit 7b7d99839c2e2886ecf159952552c9964bd80481Author: Nikita Popov <nikita.ppv@gmail.com>Date:   Mon Feb 15 14:52:38 2021 +0100    Fix symtable cache being used while cleaning symtable        We need to first clean the symtable and then check whether a cache    slot is available for it. Otherwise, it may happen that a destructor    runs while cleaning the table and uses up all the remaining slots    in the cache.        This is particularly insidious because once we overflow the cache,    the first pointer we modify is symtable_cache_ptr, making it hard    to understand what happened after the fact.        Fixes oss-fuzz #30815.
c70220205e	8b9dd0a301	Mon Feb 15 12:43:31 2021 +0100	Fix assertion failure in cufa optimization with named args	commit c70220205e20005ad916289ea6958d156fac54daAuthor: Nikita Popov <nikita.ppv@gmail.com>Date:   Mon Feb 15 12:42:48 2021 +0100    Fix assertion failure in cufa optimization with named args        Fixes oss-fuzz#30764.
e8a0ae186f	9862296d46	Mon Jan 18 10:35:01 2021 +0100	Fix memsize check for xxh32	commit e8a0ae186ffaa71ff70170ccd9c2e5e444b1a8baAuthor: Nikita Popov <nikita.ppv@gmail.com>Date:   Mon Jan 18 10:35:01 2021 +0100    Fix memsize check for xxh32        Copy-paste mistake: The memsize limit for xxh32 should be 16,    rather than 32 (which is correct for xxh64).        Probably fixes oss-fuzz #29661.
9862296d46	a3e55286a6	Mon Jan 18 10:31:38 2021 +0100	Fix $GLOBALS[] in isset and unset	commit 9862296d46013aa87b367ecd2b258fd8dd6614bfAuthor: Nikita Popov <nikita.ppv@gmail.com>Date:   Mon Jan 18 10:31:38 2021 +0100    Fix $GLOBALS[] in isset and unset        I've previously addressed the case of assignments, but the same    issue exists for isset and unset.        Fixes oss-fuzz #29699.
dd335359e9	5e57f37247	Tue Jan 5 13:03:41 2021 +0100	Fix infinite recursion in unlinked_instanceof	commit dd335359e950e52dd5e679da05b5c1f4084e5869Author: Nikita Popov <nikita.ppv@gmail.com>Date:   Tue Jan 5 13:02:30 2021 +0100    Fix infinite recursion in unlinked_instanceof        I suspect this is only a partial fix for the issue, it's probably    possible to recurse through a more complex pathway as well.        Fixes oss-fuzz #28961.
d29d3a4bf6	0067c3ced1	Tue Jan 5 12:44:17 2021 +0100	Fix use-after-scope in SplObjectStorage::unserialize()	commit d29d3a4bf69f0122b40ebafa376e2f34b20002f6Author: Nikita Popov <nikita.ppv@gmail.com>Date:   Tue Jan 5 12:43:19 2021 +0100    Fix use-after-scope in SplObjectStorage::unserialize()        Introduced by the recent switch to a zend_object. Unserialize the    object into a tmp_var to avoid leaving behind a stack reference.        Fixes oss-fuzz #29271.
0067c3ced1	ed4f18b463	Tue Jan 5 12:25:19 2021 +0100	Fix lexing of zero octal followed by whitespace	commit 0067c3ced17ff69516854865e607887a9702cd0cAuthor: Nikita Popov <nikita.ppv@gmail.com>Date:   Tue Jan 5 12:24:23 2021 +0100    Fix lexing of zero octal followed by whitespace        We'd call strtol starting at the whitespace, and strtol strips    whitespace...        Fixes oss-fuzz #29272.
2d467abc46	7971602574	Mon Dec 7 12:36:09 2020 +0100	Fix another typed resource issue in unserialization	commit 2d467abc46ec4ee97484d4e35909bed322600037Author: Nikita Popov <nikita.ppv@gmail.com>Date:   Mon Dec 7 12:33:23 2020 +0100    Fix another typed resource issue in unserialization        We also need to discard old entries in the ref_props HT when values    are overwritten.        We should really forbid these kinds of overwrites. I believe they    can only occur in manually crafted serialization strings, and    cause so many problems...        Fixes oss-fuzz #28257.
77325c4448	426fe2f20c	Fri Dec 4 12:56:05 2020 +0100	Fix removal of type source during unserialization	commit 77325c4448cff9d031b86c394932acb072e99bfeAuthor: Nikita Popov <nikita.ppv@gmail.com>Date:   Fri Dec 4 12:56:05 2020 +0100    Fix removal of type source during unserialization        Missed a check for info in this code. Add it, and add an assertion    in type source removal to make it easier to catch this issue.        Fixes oss-fuzz #28208 and #28257.
7a3f25e370	e074e029ee	Wed Nov 25 12:25:07 2020 +0100	Fix ref source management during unserialization	commit 7a3f25e370aa3be594de0873b8d67ae7ad7a21f6Author: Nikita Popov <nikita.ppv@gmail.com>Date:   Wed Nov 25 12:25:07 2020 +0100    Fix ref source management during unserialization        Only register the slot for adding ref sources later if we didn't    immediately register one. Also avoids leaking a ref source if    it is added early and the assignment fails.        Fixes oss-fuzz #27628.
706241f82d	d016434ad3	Tue Nov 24 16:42:16 2020 +0100	Fix usage of casted string in ReflectionParameter ctor	commit 706241f82d675421766b23fad4923f22b2c8e32cAuthor: Nikita Popov <nikita.ppv@gmail.com>Date:   Tue Nov 24 16:41:18 2020 +0100    Fix usage of casted string in ReflectionParameter ctor        Fixes oss-fuzz #27755.
085e16c301	3bd3651bcc	Fri Oct 30 12:38:27 2020 +0100	Fix signed integer overflow	commit 085e16c30176d21ca2ee7b3b0e158ea0f2a7cb28Author: Nikita Popov <nikita.ppv@gmail.com>Date:   Fri Oct 30 12:37:22 2020 +0100    Fix signed integer overflow        Fixes oss-fuzz #26763.
7e61c2edd8	3c53732332	Tue Sep 15 16:51:56 2020 +0200	Fix uninitialized run-time cache when resolving named param defaults	commit 7e61c2edd8456ff502e17e14d517da409f1e6193Author: Nikita Popov <nikita.ppv@gmail.com>Date:   Tue Sep 15 16:08:14 2020 +0200    Fix uninitialized run-time cache when resolving named param defaults        Fixes oss-fuzz #25676.
3c53732332	a009d370e9	Tue Sep 15 15:44:01 2020 +0200	Fix undef var exception handling in JMP_NULL	commit 3c53732332c4b9d3904eec0d1c42f0d4d4bf65c6Author: Nikita Popov <nikita.ppv@gmail.com>Date:   Tue Sep 15 15:43:31 2020 +0200    Fix undef var exception handling in JMP_NULL        We need to initialize the result variable in the exceptional    case as well.        Fixes oss-fuzz #25526.
2bbf2a91aa	e97aed4ddb	Tue Sep 15 15:26:41 2020 +0200	Fix assumption about property guard hash value	commit 2bbf2a91aacd59d3511b5e22cac064d708140caaAuthor: Nikita Popov <nikita.ppv@gmail.com>Date:   Tue Sep 15 15:25:22 2020 +0200    Fix assumption about property guard hash value        The "member" string here does not necessarily have a pre-calculated    hash value. In particular this is not the case if the class has no    properties.        Fixes oss-fuzz #25546.
16b9f19678	f5bbb0480e	Tue Sep 15 15:08:55 2020 +0200	Fix compile-time/run-time discrepancies with unary operators	commit 16b9f196782281e2bb407f3217695205d8cb70ffAuthor: Nikita Popov <nikita.ppv@gmail.com>Date:   Tue Sep 15 15:06:56 2020 +0200    Fix compile-time/run-time discrepancies with unary operators        This addresses two issues:     * ~ throws for a number of types, and we should not compile-time       evaluate in that case. Add a check similar to what we do for       binary ops.     * Unary +/- may produce a different error message due to       canonicalization of the constant operand to the RHS. To avoid       this, put the constant operand on the RHS right away.        Fixes oss-fuzz #25649.
2e9e706a82	a07c1f56aa	Wed Sep 2 10:52:55 2020 +0200	Fix throwing of yield from related exceptions into generator	commit 2e9e706a8271bbb42ad696c3383912facdd7d45fAuthor: Nikita Popov <nikita.ppv@gmail.com>Date:   Wed Sep 2 10:50:14 2020 +0200    Fix throwing of yield from related exceptions into generator        Use the general zend_generator_throw_exception() helper for this.    Otherwise we don't handle the off-by-one opline correctly (should    we maybe just stop doing that?)        This is a followup to ad750c3bb6e7b48384c6265eb9d3bcf5b4000652,    which fixed a different yield from exception handling problem that    happened to show up in the same test case from oss-fuzz #25321.    Now both issues should be fixed.
8b6b2bda09	aedc7b0fb4	Wed Sep 2 10:26:55 2020 +0200	Fix by-ref list assign LIST_W+MAKE_REF separation	commit 8b6b2bda093b26640d0d1d640e4566684df88011Author: Nikita Popov <nikita.ppv@gmail.com>Date:   Wed Sep 2 10:23:44 2020 +0200    Fix by-ref list assign LIST_W+MAKE_REF separation        Shift the responsibility for emitting MAKE_REF to the list assignment    code, to make sure that LIST_W and MAKE_REF are directly adjacent,    and there are no opcodes in between that could modify the LIST_W    result.        Additionally, adjust the zend_wrong_string_offset() code to not    perform a loop over opcodes and assert that the next opcode is    a relevant one. The VM write-safety model requires this.        This is a followup to a07c1f56aac1c0f6c8334760009b678cbf9d6138    and the full fix for oss-fuzz #25352.
a07c1f56aa	cd2afd99b1	Wed Sep 2 10:16:05 2020 +0200	Fix infinite loop on string offset during by-ref list assign	commit a07c1f56aac1c0f6c8334760009b678cbf9d6138Author: Nikita Popov <nikita.ppv@gmail.com>Date:   Wed Sep 2 10:13:42 2020 +0200    Fix infinite loop on string offset during by-ref list assign        There is a deeper underlying issue here, in that the opcodes violate    VM write-fetch safety, but let's fix the infinite loop first.        This fixes oss-fuzz #25352.
ad750c3bb6	376bbbdf3b	Mon Aug 31 10:51:31 2020 +0200	Fix handling of exception if valid() during yield from	commit ad750c3bb6e7b48384c6265eb9d3bcf5b4000652Author: Nikita Popov <nikita.ppv@gmail.com>Date:   Mon Aug 31 10:51:00 2020 +0200    Fix handling of exception if valid() during yield from        Fixes oss-fuzz #25296.
74de17f2ea	844a2dd6ac	Mon Aug 24 17:35:04 2020 +0200	Fix potential integer overflow detected by oss-fuzz	commit 74de17f2ea9c7485701ada23fa935f9800b5b275Author: Christoph M. Becker <cmbecker69@gmx.de>Date:   Mon Aug 24 17:32:06 2020 +0200    Fix potential integer overflow detected by oss-fuzz        We port the respective fix from upstream[1].        [1] <https://github.com/libgd/libgd/commit/9ed642764cf0b4585d135eb738812a43265cb2d3>
a4c015b4b2	05c5c93705	Mon Aug 3 10:16:38 2020 +0200	Fix handling of nullsafe method in empty()	commit a4c015b4b272b992379517e3b0e8d5c6c6fb213dAuthor: Nikita Popov <nikita.ppv@gmail.com>Date:   Mon Aug 3 10:16:04 2020 +0200    Fix handling of nullsafe method in empty()        Fixes oss-fuzz #24627.
ee7eecf321	c206c742d6	Wed Jul 29 15:51:47 2020 +0200	Fix leak with nullsafe operator with constant LHS	commit ee7eecf321fb480485fce7efce0d6deb8629870eAuthor: Nikita Popov <nikita.ppv@gmail.com>Date:   Wed Jul 29 15:51:47 2020 +0200    Fix leak with nullsafe operator with constant LHS        Followup to 5303bcdd32e8171399c2c60bf431e5304a66c39a. We need to    perform the addref after emitting the opline, because that might    intern the string.        Fixes oss-fuzz #24479.
5303bcdd32	2dbb4ecfa1	Tue Jul 28 09:48:13 2020 +0200	Fix use-after-free when nullsafe used with constant LHS	commit 5303bcdd32e8171399c2c60bf431e5304a66c39aAuthor: Nikita Popov <nikita.ppv@gmail.com>Date:   Tue Jul 28 09:48:13 2020 +0200    Fix use-after-free when nullsafe used with constant LHS        Fixes oss-fuzz #24436.
08e6c20955	3b5b288127	Mon Jul 27 10:27:26 2020 +0200	Fix null pointer deref in compile_return()	commit 08e6c209550a268500bbdef48c1b19494272e6e8Author: Nikita Popov <nikita.ppv@gmail.com>Date:   Mon Jul 27 10:27:26 2020 +0200    Fix null pointer deref in compile_return()        Fixes oss-fuzz #24387.
fac43d6515	c8e9aa854c	Wed Dec 4 11:20:52 2019 +0100	Fix AST printing of nullable builtin types	commit fac43d6515adb932083edeacd40f87d6b8393d66Author: Nikita Popov <nikita.ppv@gmail.com>Date:   Wed Dec 4 11:20:52 2019 +0100    Fix AST printing of nullable builtin types        Fixes oss-fuzz #19109.
a6832caac9	7b34e30b9a	Wed Dec 4 11:07:22 2019 +0100	Fix incorrect assertion in property type variance check	commit a6832caac9678fce098064a62137bb88e1d7e236Author: Nikita Popov <nikita.ppv@gmail.com>Date:   Wed Dec 4 11:07:22 2019 +0100    Fix incorrect assertion in property type variance check        Only one of the status has to be UNRESOLVED, the other could also    be SUCCESS.        Fixes oss-fuzz #19108 and oss-fuzz #19111.
